(lp0
I3
aI3
aI9
aI1
aI1
aI1
aI1
aI1
aI1
aI5
aI2
aI1
aI1
aI1
aI4
aI4
aI1
aI2
aI2
aI6
aI1
aI1
aI1
aI1
aI1
aI1
aI3
aI1
aI1
aI1
aI2
aI1
aI1
aI1
aI1
aI1
aI1
aI2
aI1
aI2
aI1
aI2
aI1
aI1
aI1
aI1
aI1
aI1
aI1
aI1
aI1
aI1
aI1
aI22
aI7
aI1
aI1
aI1
aI3
aI1
aI2
aI2
aI1
aI2
aI1
aI3
aI6
aI1
aI1
aI1
aI1
aI27
aI1
aI1
aI1
aI1
aI3
aI2
aI1
aI1
aI1
aI4
aI5
aI1
aI1
aI1
aI1
aI1
aI1
aI3
aI1
aI2
aI3
aI4
aI1
aI3
aI1
aI1
aI2
aI1
aI1
aI21
aI4
aI1
aI1
aI2
aI2
aI2
aI3
aI1
aI1
aI1
aI1
aI3
aI1
aI1
aI1
aI1
aI1
aI1
aI1
aI1
aI6
aI1
aI1
aI1
aI1
aI2
aI1
aI1
aI2
aI1
aI1
aI1
aI1
aI1
aI1
aI1
aI3
aI1
aI2
aI2
aI1
aI3
aI1
aI1
aI3
aI6
aI1
aI3
aI3
aI3
aI1
aI1
aI1
aI1
aI1
aI1
aI1
aI1
aI1
aI1
aI2
aI1
aI3
aI2
aI2
aI1
aI1
aI2
aI1
aI19
aI1
aI1
aI3
aI3
aI1
aI13
aI1
aI2
aI1
aI2
aI1
aI1
aI1
aI1
aI1
aI1
aI2
aI1
aI2
aI1
aI1
aI1
aI2
aI2
aI1
aI1
aI1
aI1
aI1
aI1
aI1
aI149
aI1
aI36
aI1
aI1
aI1
aI2
aI9
aI1
aI1
aI1
aI1
aI7
aI1
aI3
aI5
aI1
aI2
aI395
aI1
aI2
aI42
aI5
aI25
aI16
aI20
aI7
aI1
aI1
aI1
aI1
aI3
aI1
aI1
aI1
aI1
aI1
aI2
aI1
aI1
aI1
aI8
aI2
aI1
aI1
aI1
aI1
aI2
aI1
aI1
aI1
aI4
aI4
aI3706
aI16
aI1
aI6
aI1
aI1
aI4
aI1
aI1
aI2
aI1
aI2
aI1
aI1
aI1
aI1
aI1
aI2
aI1
aI1
aI1
aI1
aI1
aI1
aI1
aI2
aI3
aI2
aI3
aI1
aI1
aI1
aI1
aI1
aI6
aI1
aI2
aI4
aI1
aI8
aI1
aI1
aI1
aI2
aI3
aI1
aI4
aI7
aI1
aI6
aI1
aI2
aI3
aI1
aI2
aI1
aI109
aI5
aI3
aI32
aI1
aI1
aI2
aI13
aI1
aI1
aI10
aI1
aI2
aI11
aI8
aI1
aI1
aI1
aI1
aI2
aI5
aI1
aI12
aI5
aI14
aI1
aI4
aI1
aI7
aI2
aI2
aI6
aI4
aI1
aI1
aI2
aI4
aI1
aI1
aI8
aI2
aI2
aI8
aI1
aI1
aI2
aI1
aI1
aI15
aI1
aI11
aI1
aI1
aI1
aI2
aI1
aI1
aI2
aI2
aI1
aI2
aI1
aI3
aI4
aI6
aI3
aI1
aI1
aI2
aI2
aI2
aI2
aI4
aI1
aI2
aI3
aI1
aI1
aI1
aI1
aI1
aI1
aI6
aI1
aI1
aI1
aI1
aI1
aI1
aI8
aI14
aI1
aI6
aI1
aI1
aI1
aI1
aI2
aI3
aI2
aI36
aI1
aI5
aI4
aI4
aI28
aI1
aI2
aI5
aI1
aI2
aI1
aI5
aI1
aI8
aI5
aI2
aI1
aI8
aI1
aI2
aI2
aI1
aI11
aI6
aI4
aI2
aI1
aI2
aI1
aI1
aI1
aI2
aI14
aI2
aI1
aI3
aI3
aI1
aI1
aI1
aI12
aI9
aI7
aI1
aI1
aI2
aI2
aI2
aI1
aI1
aI4
aI1
aI2
aI3
aI2
aI5
aI1
aI1
aI2
aI1
aI1
aI1
aI1
aI1
aI3
aI1
aI2
aI1
aI1
aI1
aI5
aI6
aI1
aI1
aI1
aI2
aI14
aI1
aI1
aI1
aI2
aI4
aI1
aI1
aI3
aI2
aI1
aI1
aI1
aI1
aI7
aI1
aI4
aI10
aI1
aI1
aI1
aI1
aI1
aI1
aI2
aI13
aI1
aI1
aI1
aI5
aI3
aI14
aI2
aI3
aI1
aI2
aI1
aI26
aI1
aI2
aI1
aI9
aI1
aI1
aI1
aI1
aI1
aI2
aI1
aI1
aI3
aI1
aI10
aI1
aI1
aI4
aI1
aI1
aI2
aI1
aI1
aI3
aI2
aI1
aI1
aI2
aI3
aI2
aI5
aI11
aI1
aI1
aI1
aI1
aI1
aI96
aI1
aI1
aI1
aI9
aI6
aI1
aI4
aI2
aI1
aI159
aI8
aI57
aI1
aI156
aI1
aI1
aI1
aI62
aI2
aI4
aI6
aI2
aI2
aI1
aI2
aI1
aI2
aI1
aI1
aI1
aI3
aI2
aI1
aI2
aI1
aI1
aI1
aI1
aI3
aI1
aI2
aI11
aI27
aI8
aI1
aI10
aI2
aI64
aI1
aI1
aI7
aI1
aI4
aI7
aI1
aI1
aI17
aI23
aI1
aI3
aI1
aI2
aI1
aI1
aI13
aI58
aI6
aI2
aI3
aI1
aI3
aI1
aI1
aI1
aI1
aI2
aI5
aI1
aI4
aI2
aI1
aI6
aI18
aI1
aI3
aI990
aI5
aI12
aI1
aI1
aI1
aI1
aI1
aI1
aI1
aI1
aI1
aI1
aI1
aI40
aI1
aI1
aI1
aI1
aI1
aI1
aI5
aI1
aI1
aI2
aI1
aI2
aI1
aI1
aI1
aI1
aI8
aI2
aI1
aI1
aI6
aI1
aI2
aI1
aI1
aI1
aI60
aI2
aI1
aI1
aI58
aI22
aI26
aI3
aI2
aI7
aI5
aI2
aI31
aI1
aI8
aI6
aI1
aI1
aI5
aI3
aI1
aI2
aI1
aI1
aI2
aI21
aI2
aI6
aI1
aI14
aI627
aI1
aI12
aI1
aI1
aI1
aI8
aI1
aI4
aI2
aI2
aI5
aI1
aI1
aI1
aI1
aI3
aI1
aI1
aI1
aI20
aI2
aI1
aI12
aI1
aI1
aI4
aI1
aI1
aI1
aI8
aI6
aI6
aI3
aI1
aI1
aI6
aI1
aI1
aI4
aI1
aI12
aI1
aI2
aI2
aI20
aI1
aI3
aI7
aI2
aI1
aI1
aI471
aI3
aI1
aI1
aI1
aI1
aI4
aI1
aI1
aI1
aI1
aI1
aI25
aI2
aI1
aI1
aI6721
aI2
aI4
aI18
aI1
aI1
aI1
aI1
aI6
aI1
aI1
aI14
aI3
aI4
aI1
aI1
aI3
aI1
aI1
aI19
aI4
aI3
aI2
aI2
aI3
aI1
aI1
aI1
aI2
aI1
aI1
aI2
aI2
aI2
aI21
aI3
aI9
aI93
aI1
aI10
aI2
aI1
aI93
aI6
aI1
aI14
aI1
aI1
aI7
aI3
aI1
aI1
aI3
aI1
aI1
aI1
aI1
aI1
aI1
aI1
aI1
aI4
aI1
aI1
aI1
aI1
aI1
aI1
aI11
aI4
aI3
aI1
aI2
aI2
aI1
aI47
aI2
aI1
aI1
aI18
aI1
aI222
aI2
aI16
aI3
aI7
aI3
aI9
aI7
aI6
aI1
aI1
aI3
aI1
aI1
aI2
aI1
aI2
aI1
aI10
aI2
aI1
aI1
aI2
aI1
aI1
aI1
aI1
aI36
aI5
aI6
aI4
aI2
aI1
aI1
aI18
aI1
aI1
aI1
aI2
aI1
aI1
aI1
aI11
aI2
aI1
aI4
aI2
aI1
aI3
aI1
aI1
aI1
aI6
aI1
aI3
aI5
aI1
aI10
aI4
aI1
aI1
aI1
aI16
aI1
aI4
aI1
aI2
aI1
aI3
aI13
aI4
aI2
aI1
aI1
aI6
aI1
aI1
aI16
aI1
aI1
aI1
aI1
aI2
aI1
aI1
aI1
aI1
aI1
aI1
aI2
aI1
aI1
aI1
aI2
aI2
aI2
aI991
aI1
aI19
aI3
aI1
aI1
aI3
aI1
aI18
aI3
aI1
aI1
aI8
aI2
aI2
aI2
aI5
aI1
aI11
aI2
aI1
aI1
aI1
aI1
aI1
aI1
aI1
aI30
aI12
aI1
aI5
aI6
aI1
aI1
aI1
aI6
aI2
aI25
aI2
aI5
aI11
aI2
aI1
aI1
aI1
aI1
aI4
aI1
aI5
aI4
aI5
aI1
aI1
aI4
aI1
aI4
aI3
aI1
aI1
aI1
aI2
aI5
aI6
aI285
aI1
aI1
aI12
aI1
aI5
aI1
aI1
aI3
aI1
aI3
aI1532
aI1
aI1
aI1
aI1
aI2
aI3
aI3
aI2
aI2
aI1
aI12
aI4
aI42
aI5
aI1
aI8
aI2
aI1
aI1
aI24
aI2
aI3
aI3
aI1
aI1
aI1
aI1
aI1
aI17
aI2
aI1
aI1
aI6
aI1
aI2
aI1
aI1
aI1
aI1
aI1
aI1
aI2
aI1
aI2
aI5
aI2
aI1
aI2
aI2
aI5
aI2
aI3
aI1
aI1
aI2
aI5
aI3
aI3
aI1
aI1
aI1
aI7
aI11
aI9
aI16
aI2
aI1
aI2
aI1
aI1
aI1
aI1
aI1
aI1
aI601
aI1
aI2
aI2
aI2
aI12
aI2
aI3
aI18
aI1
aI1
aI3
aI3
aI2
aI1
aI1
aI1
aI2
aI1
aI1
aI1
aI1
aI1
aI8
aI1
aI1
aI1
aI31
aI1
aI1
aI1
aI1
aI2
aI3
aI1
aI1
aI4
aI3
aI1
aI1
aI1
aI3
aI2
aI1
aI1
aI1
aI1
aI1
aI8
aI2
aI5
aI1
aI8
aI2
aI4
aI1
aI30
aI1
aI1
aI1
aI2
aI2
aI2
aI1
aI1
aI1
aI2
aI1
aI1
aI2
aI4
aI1
aI1
aI3
aI1
aI1
aI8
aI1
aI1
aI1
aI3
aI1
aI2
aI1
aI1
aI3
aI1
aI1
aI12
aI2
aI1
aI4
aI1
aI1
aI6
aI1
aI23
aI13
aI3
aI1
aI1
aI1
aI1
aI148
aI32
aI40
aI5
aI4
aI28
aI1
aI9
aI1
aI1
aI1
aI4
aI187
aI8
aI9
aI1
aI1
aI1
aI9
aI1
aI5
aI1
aI1
aI4
aI1
aI7
aI2
aI1
aI91
aI3
aI12
aI1
aI2
aI2
aI9
aI1
aI42
aI2
aI2
aI20
aI1
aI2
aI2
aI3
aI1
aI2
aI1
aI2
aI1
aI1
aI2
aI6
aI1
aI4
aI1
aI1
aI1
aI2
aI1
aI3
aI1
aI1
aI1
aI1
aI1
aI1
aI1
aI2
aI1
aI3
aI1
aI2
aI1
aI3
aI3
aI1
aI4
aI1
aI1
aI1
aI1
aI1
aI18
aI1
aI14
aI1
aI3
aI4
aI3
aI1
aI5
aI5
aI4
aI4
aI1
aI1
aI3
aI5
aI1
aI1
aI1
aI17
aI4
aI5
aI1
aI1
aI1
aI1
aI1
aI1
aI7
aI1
aI1
aI1
aI1
aI3
aI4
aI4
aI18
aI1
aI1
aI2
aI1
aI1
aI1
aI2
aI2
aI2
aI2
aI16
aI2
aI1
aI2
aI1
aI1
aI1
aI1
aI1
aI1
aI1
aI2
aI13
aI1
aI1
aI4
aI32
aI1
aI6
aI3
aI1
aI8
aI2
aI1
aI3
aI1
aI2
aI1
aI13
aI2
aI1
aI1
aI2
aI1
aI1
aI3
aI1
aI3
aI3
aI5
aI2
aI3
aI1
aI1
aI1
aI1
aI1
aI1
aI1
aI1
aI1
aI16
aI2
aI4
aI2
aI4
aI1
aI2
aI6
aI1
aI1
aI1
aI2
aI3
aI1
aI7
aI3
aI1784
aI3
aI1
aI1
aI8
aI1
aI1
aI1
aI1
aI1
aI1
aI1
aI1
aI26
aI1
aI1
aI1
aI1
aI1
aI1
aI1
aI1
aI1
aI1
aI7
aI1
aI150
aI1
aI2
aI1
aI1
aI6
aI36
aI1
aI5
aI2
aI7
aI1
aI2
aI10
aI1
aI33
aI24
aI1
aI1
aI3
aI1
aI8
aI1
aI2
aI25
aI1
aI1
aI10
aI6
aI33
aI8
aI7
aI1
aI2
aI16
aI1
aI9
aI1
aI1
aI2
aI1
aI1
aI86
aI21
aI2
aI1
aI4
aI38
aI2
aI2
aI22
aI1
aI14
aI2
aI78
aI2
aI1
aI1
aI1
aI1
aI1
aI20
aI1
aI1
aI2
aI1
aI1
aI1
aI1
aI2
aI1
aI3
aI1
aI2
aI1
aI191
aI1
aI1
aI1
aI2
aI7
aI2
aI4
aI3
aI2
aI1
aI1
aI1
aI4
aI1
aI1
aI169
aI11
aI1
aI1
aI30
aI1
aI13
aI1
aI4
aI4
aI10
aI3
aI2
aI1
aI1
aI2
aI4
aI6
aI1
aI1
aI1
aI28
aI4
aI1
aI7
aI1
aI19
aI1
aI7
aI1
aI2
aI7
aI2
aI10
aI1
aI1
aI8
aI2
aI6
aI1
aI2
aI6
aI1
aI3
aI3
aI1
aI29
aI6
aI32
aI5
aI1
aI1
aI3
aI1
aI1
aI1
aI1
aI1
aI186
aI1
aI1
aI2
aI1
aI2
aI5
aI1
aI5
aI1
aI2
aI74
aI1
aI2
aI1
aI1
aI1
aI6
aI14
aI1
aI1
aI3
aI1
aI1
aI1
aI1
aI1
aI1
aI1
aI6
aI2
aI1
aI1
aI1
aI3
aI1
aI1
aI4
aI10
aI7
aI6
aI4
aI1
aI1
aI1
aI1
aI1
aI12
aI1
aI7
aI1
aI5
aI1
aI1
aI42
aI2
aI3
aI8
aI3
aI1
aI2
aI1
aI1
aI1
aI1
aI9
aI1
aI4
aI2
aI1
aI12
aI6
aI1
aI1
aI1
aI2
aI1
aI1
aI1
aI3
aI2
aI1
aI4
aI1
aI3
aI1
aI53
aI1
aI1
aI1
aI1
aI1
aI12
aI6
aI1
aI1
aI24
aI3
aI1
aI1
aI1
aI2
aI1
aI1
aI1
aI122
aI2
aI1
aI10
aI1
aI1
aI1
aI1
aI1
aI15
aI2
aI1
aI1
aI5
aI1
aI3
aI1
aI3
aI1
aI1
aI1
aI2
aI7
aI2
aI1
aI1
aI6
aI1
aI1
aI1
aI7
aI2
aI1
aI1
aI1
aI2
aI1
aI1
aI152
aI1
aI2
aI5
aI1
aI1
aI2
aI1
aI58
aI13
aI1
aI1
aI1
aI1
aI13
aI2
aI1
aI1
aI1
aI1
aI2
aI16
aI3
aI1
aI2
aI2
aI98
aI1
aI4
aI1
aI5
aI1
aI1
aI12
aI3
aI1
aI8
aI1
aI5
aI1
aI4
aI1
aI2
aI1
aI6
aI2
aI2
aI11
aI1
aI1
aI13
aI1
aI4
aI1
aI2
aI1
aI11
aI8
aI2
aI22
aI1
aI1
aI1
aI1
aI1
aI1
aI3
aI1
aI1
aI16
aI4
aI2
aI25
aI2
aI2
aI3
aI1
aI59
aI1
aI2
aI1
aI2
aI2
aI1
aI1
aI6
aI1
aI3
aI1
aI2
aI28
aI6
aI1
aI1
aI1
aI1
aI1
aI1
aI1
aI6
aI4
aI2
aI1
aI1
aI1
aI1
aI6
aI3
aI1
aI1
aI3
aI1
aI3
aI1
aI4
aI1
aI2
aI1
aI1
aI1
aI13
aI1
aI2
aI7
aI2
aI1
aI1
aI1
aI1
aI29
aI10
aI28
aI1
aI1
aI1
aI1
aI18
aI5
aI3
aI1
aI22
aI1
aI1
aI3
aI1
aI1
aI1
aI7
aI1
aI2
aI1
aI2
aI2
aI1
aI2
aI1
aI2
aI1
aI134
aI4
aI1
aI9
aI1
aI1
aI2
aI1
aI61
aI1
aI4
aI1
aI1
aI3
aI1
aI7
aI2
aI1
aI23
aI1
aI2
aI1
aI10
aI15
aI1
aI1
aI5
aI1
aI1
aI8
aI1
aI1
aI1
aI1
aI1
aI1
aI10
aI1
aI1
aI2
aI4
aI1
aI1
aI1
aI5
aI4
aI1
aI10
aI1
aI1
aI2
aI1
aI4
aI3
aI1
aI2
aI1
aI1
aI3
aI1
aI1
aI2
aI11
aI1
aI1
aI1
aI1
aI1
aI56
aI8
aI11
aI2
aI1
aI4
aI1
aI1
aI5
aI36
aI1
aI1
aI1
aI1
aI1
aI1
aI4
aI1
aI2
aI14
aI1
aI6
aI1
aI5
aI2
aI4
aI2
aI1
aI24
aI1
aI2
aI1
aI2
aI3
aI1
aI1
aI1
aI22
aI5
aI1
aI11
aI1
aI2
aI1
aI3
aI1
aI1
aI6
aI1
aI1
aI1
aI2
aI2
aI1
aI14
aI1
aI1
aI39
aI6
aI14
aI1
aI3
aI5
aI1
aI1
aI2
aI1
aI1
aI1
aI30
aI1
aI3
aI4
aI9
aI1
aI1
aI1
aI143
aI4
aI12
aI9
aI2
aI3
aI1
aI12
aI3
aI1
aI1
aI1
aI3
aI5
aI6
aI1
aI1
aI40
aI1
aI3
aI1
aI1
aI3
aI5
aI1
aI8
aI1
aI2
aI6
aI1
aI3
aI1
aI2
aI1
aI19
aI4
aI1
aI1
aI1
aI2
aI1
aI5
aI1
aI1
aI5
aI1
aI1
aI1
aI56
aI7
aI2
aI7
aI1
aI10
aI1
aI1
aI4
aI2
aI1
aI3
aI1
aI2
aI5
aI3
aI2
aI2
aI2
aI26
aI1
aI1
aI1
aI17
aI1
aI3
aI1
aI3
aI1
aI1
aI1
aI2
aI1
aI7
aI2
aI4
aI5
aI1
aI1
aI42
aI7
aI1
aI4
aI4
aI1
aI4
aI1
aI1
aI1
aI6
aI2
aI5
aI1
aI1
aI2
aI59
aI1
aI1
aI3
aI1
aI3
aI8
aI1
aI21
aI2
aI2
aI1
aI4
aI62
aI2
aI3
aI10
aI2
aI1
aI1
aI1
aI6
aI4
aI3
aI4
aI10
aI1
aI2
aI15
aI1
aI1
aI7
aI1
aI3
aI1
aI1
aI1
aI1
aI1
aI2
aI3
aI1
aI2
aI1
aI2
aI3
aI5
aI1
aI1
aI1
aI1
aI1
aI30
aI1
aI3
aI8
aI2
aI1
aI4
aI4
aI24
aI2
aI1
aI2
aI1
aI1
aI2
aI1
aI1
aI1
aI3
aI1
aI131
aI1
aI1
aI1
aI1
aI4
aI14
aI1
aI1
aI1
aI1
aI2
aI1
aI8
aI1
aI1
aI2
aI2
aI21
aI1
aI12
aI1
aI1
aI2
aI1
aI6
aI1
aI1
aI1
aI3
aI2
aI2
aI1
aI1
aI108
aI4
aI1
aI27
aI21
aI1
aI1
aI1
aI5
aI2
aI2
aI41
aI1
aI29
aI3
aI3
aI10
aI2
aI1
aI2
aI1
aI1
aI1
aI1
aI2
aI4
aI1
aI114
aI7
aI10
aI13
aI1
aI4
aI2
aI1
aI1
aI1
aI1
aI5
aI1
aI1
aI4
aI9
aI1
aI2
aI2
aI1
aI6
aI1
aI2
aI1
aI2
aI4
aI4
aI5
aI2
aI1
aI1
aI3
aI2
aI1
aI1
aI1
aI1
aI1
aI1
aI1
aI1
aI12
aI1
aI1
aI1
aI1
aI8
aI1
aI3
aI5
aI6
aI19
aI1
aI3
aI1
aI26
aI1
aI4
aI2
aI1
aI2
aI10
aI4
aI1
aI4
aI2
aI10
aI1
aI1
aI3
aI1
aI9
aI1
aI9
aI1
aI2
aI2
aI1
aI1
aI61
aI1
aI8
aI1
aI1
aI1
aI12
aI1803
aI1
aI2
aI3
aI1
aI1
aI4
aI1
aI1
aI1
aI2
aI2
aI1
aI1
aI1
aI19
aI1
aI1
aI3
aI2
aI1
aI1
aI1
aI970
aI1
aI5
aI10
aI6
aI1
aI1
aI4
aI1
aI1
aI1
aI1
aI1
aI1
aI1
aI1
aI3
aI1
aI1
aI2
aI2
aI13
aI1
aI1
aI1
aI1
aI1
aI3
aI2
aI3
aI1
aI1
aI1
aI9
aI1
aI1
aI1
aI161
aI30
aI1
aI1
aI2
aI2
aI1
aI16
aI5
aI1
aI36
aI2
aI6
aI1
aI1
aI1
aI3
aI3
aI2
aI1
aI1
aI1
aI10
aI95
aI2
aI1
aI1
aI2
aI354
aI2
aI2
aI2
aI2
aI2
aI5
aI1
aI1
aI3
aI10
aI2
aI1
aI1
aI1
aI1
aI1
aI5
aI2
aI1
aI2
aI202
aI5
aI1
aI1
aI5
aI49
aI1
aI5
aI1
aI1
aI1
aI4
aI2
aI1
aI1
aI1
aI2
aI1
aI1
aI4
aI12
aI6
aI2
aI1
aI1
aI3
aI8
aI1
aI1
aI3
aI2
aI2
aI1
aI2
aI10
aI2
aI1
aI1
aI3
aI1
aI1
aI2
aI1
aI1
aI1
aI1
aI1
aI3
aI2
aI1
aI1
aI42
aI4
aI1
aI1
aI3
aI2
aI2
aI1
aI4
aI3
aI5
aI1
aI2
aI2
aI1
aI1
aI1
aI2
aI3
aI1
aI1
aI1
aI1
aI3
aI1
aI5
aI3
aI7
aI3
aI1
aI1
aI19
aI1
aI1
aI4
aI1
aI3
aI2
aI2
aI6
aI1
aI2
aI23
aI1
aI2
aI22
aI2
aI5
aI3
aI1
aI4
aI1
aI1
aI1
aI85
aI13
aI1
aI9
aI13
aI55
aI6
aI5
aI9
aI35
aI1
aI1
aI4
aI2
aI2
aI1
aI1
aI1
aI14
aI1
aI1
aI1
aI1
aI1
aI23
aI1
aI1
aI1
aI3
aI1
aI1
aI1
aI1
aI1
aI1
aI5
aI2
aI4
aI2
aI9
aI7
aI1
aI79
aI10
aI1
aI4
aI1
aI1
aI3
aI1
aI1
aI4
aI1
aI1
aI1
aI1
aI14
aI3
aI1
aI2
aI1
aI12
aI2
aI1
aI1
aI1
aI2
aI1
aI1
aI2
aI5
aI3
aI19
aI1
aI5
aI1
aI1
aI11
aI1
aI1
aI2
aI2
aI3
aI1
aI1
aI1
aI2
aI3
aI1
aI6
aI2
aI4
aI1
aI39
aI5
aI1
aI8
aI1
aI1
aI2
aI1
aI4
aI1
aI2
aI6
aI1
aI1
aI2
aI1
aI1
aI1
aI10
aI1
aI1
aI4
aI3
aI1
aI1
aI1
aI22
aI1
aI6
aI2
aI4
aI1
aI1
aI2
aI1
aI1
aI1
aI2
aI4
aI2
aI19
aI2
aI5
aI5
aI2
aI50
aI1
aI4
aI2
aI1
aI3
aI1
aI1
aI4
aI10
aI2
aI1
aI1
aI2
aI1
aI1
aI2
aI1
aI2
aI2
aI2
aI2
aI1
aI1
aI6
aI1
aI2
aI1
aI9
aI45
aI4
aI3
aI1
aI2
aI1
aI3
aI3
aI5
aI2
aI10
aI1
aI20
aI1
aI1
aI3
aI1
aI1
aI1
aI14
aI1
aI1
aI4
aI1
aI10
aI2
aI14
aI1
aI2
aI1
aI1
aI3
aI2
aI1
aI1
aI2
aI1
aI1
aI2
aI1
aI1
aI2
aI1
aI8
aI1
aI1
aI2
aI1
aI1
aI25
aI1
aI17
aI2
aI17
aI1
aI2
aI1
aI4
aI2
aI1
aI7
aI1
aI1
aI1
aI4
aI1
aI1
aI3
aI1
aI3
aI1
aI1
aI3
aI1
aI1
aI1
aI1
aI1
aI6
aI1
aI2
aI23
aI1
aI2
aI6
aI1
aI8
aI2
aI5
aI59
aI7
aI2
aI1
aI1
aI5
aI1
aI5
aI1
aI2
aI1
aI19
aI1
aI3
aI4
aI3
aI1
aI1
aI3
aI1
aI5
aI1
aI3
aI1
aI1
aI20
aI2
aI1
aI1
aI4
aI1
aI1
aI5
aI2
aI2
aI16
aI1
aI1
aI1
aI1
aI1
aI2
aI1
aI1
aI5
aI2
aI1
aI3
aI1
aI1
aI9
aI1
aI2
aI1
aI3
aI1
aI1
aI1
aI3
aI1
aI17
aI1
aI1
aI1
aI2
aI3
aI4
aI2
aI2
aI3
aI1
aI3
aI1
aI1
aI1
aI2
aI6
aI1
aI1
aI7
aI3
aI1
aI12
aI1
aI2
aI1
aI3
aI1
aI1
aI1
aI1
aI1
aI1
aI1
aI10
aI1
aI1
aI3
aI2
aI1
aI2
aI4
aI1
aI1
aI1
aI1
aI5
aI12
aI1
aI1
aI1
aI3
aI1
aI15
aI3
aI1
aI3
aI1
aI1
aI4
aI6
aI1
aI1
aI1
aI1
aI3
aI1
aI1
aI4
aI1
aI1
aI3
aI1
aI2
aI1
aI46
aI1
aI11
aI1
aI4
aI1
aI1
aI1
aI1
aI4
aI1
aI8
aI1
aI2
aI13
aI2
aI1
aI1
aI1
aI1
aI3
aI1
aI4
aI3
aI1
aI1
aI1
aI1
aI1
aI2
aI1
aI1
aI3
aI2
aI1
aI1
aI6
aI2
aI1
aI1
aI1
aI2
aI4
aI1
aI1
aI1
aI1
aI2
aI6
aI1
aI7
aI4
aI1
aI2
aI2
aI1
aI1
aI4
aI25
aI1
aI2
aI1
aI2
aI10
aI2
aI1
aI2
aI2
aI4
aI1
aI1
aI5
aI1
aI1
aI26
aI1
aI2
aI1
aI4
aI2
aI1
aI5
aI1
aI1
aI1
aI1
aI4
aI2
aI2
aI2
aI1
aI1
aI1
aI1
aI1
aI4
aI1
aI4
aI1
aI1
aI1
aI4
aI1
aI1
aI11
aI1
aI1
aI2
aI1
aI1
aI1
aI1
aI1
aI1
aI1
aI3
aI1
aI1
aI1
aI1
aI1
aI1
aI1
aI1
aI1
aI1
aI5
aI1
aI1
aI1
aI1
aI45
aI1
aI5
aI2
aI4
aI1
aI1
aI1
aI1
aI1
aI3
aI2
aI1
aI2
aI1
aI1
aI1
aI1
aI1
aI20
aI1
aI4
aI2
aI1
aI1
aI1
aI7
aI1
aI1
aI1
aI3
aI1
aI2
aI1
aI1
aI1
aI686
aI7
aI1
aI28
aI5
aI1
aI3
aI1
aI160
aI1
aI18
aI1
aI1
aI1
aI44
aI2
aI6
aI4
aI3
aI2
aI1
aI1
aI5
aI1
aI38
aI1
aI7
aI1
aI1
aI31
aI5
aI5
aI1
aI2
aI2
aI4
aI1
aI8
aI2
aI2
aI1
aI22
aI1
aI1
aI2
aI3
aI1
aI1
aI1
aI3
aI1
aI1
aI2
aI1
aI13
aI7
aI1
aI1
aI1
aI5
aI4
aI1
aI1
aI1
aI2
aI40
aI1
aI1
aI1
aI1
aI1
aI3
aI1
aI1
aI7
aI2
aI1
aI7
aI5
aI37
aI1
aI14
aI2
aI11
aI3
aI1
aI7
aI1
aI1
aI1
aI1
aI2
aI1
aI2
aI3
aI1
aI3
aI1
aI1
aI1
aI1
aI1
aI3
aI1
aI2
aI1
aI2
aI12
aI2
aI2
aI1
aI5
aI1
aI1
aI3
aI4
aI1
aI1
aI5
aI1
aI2
aI4
aI3
aI1
aI1
aI1
aI1
aI2
aI1
aI1
aI2
aI1
aI1
aI1
aI1
aI2
aI2
aI3
aI1
aI1
aI1
aI1
aI12
aI3
aI1
aI3
aI1
aI7
aI2
aI2
aI4
aI1
aI2
aI1
aI2
aI1
aI4
aI6
aI5
aI1
aI1
aI7
aI1
aI2
aI2
aI5
aI3
aI4
aI4
aI11
aI2
aI2
aI3
aI2
aI1
aI1
aI1
aI11
aI1
aI1
aI1
aI1
aI1
aI1
aI2
aI3
aI5
aI6
aI1
aI1
aI33
aI1
aI7
aI1
aI1
aI2
aI2
aI7
aI1
aI1
aI1
aI4
aI1
aI1
aI8
aI2
aI7
aI1
aI1
aI5
aI4
aI4
aI1
aI1
aI1
aI1
aI1
aI3
aI6
aI1
aI2
aI2
aI5
aI1
aI1
aI2
aI6
aI1
aI1
aI1
aI1
aI1
aI1
aI3
aI1
aI1
aI3
aI1
aI1
aI2
aI1
aI2
aI4
aI2
aI1
aI10
aI1
aI2
aI3
aI2
aI3
aI1
aI1
aI7
aI1
aI1
aI1
aI2
aI17
aI1
aI1
aI1
aI1
aI1
aI2
aI1
aI1
aI23
aI1
aI3
aI1
aI1
aI1
aI1
aI6
aI1
aI1
aI1
aI1
aI1
aI15
aI2
aI1
aI1
aI1
aI1
aI1
aI3
aI2
aI1
aI1
aI2
aI1
aI2
aI1
aI1
aI1
aI2
aI2
aI1
aI2
aI1
aI1
aI8
aI1
aI3
aI7
aI1
aI17
aI1
aI2
aI1
aI1
aI1
aI2
aI1
aI1
aI4
aI2
aI2
aI1
aI2
aI1
aI1
aI1
aI1
aI4
aI2
aI1
aI3
aI1
aI1
aI1
aI1
aI1
aI2
aI1
aI1
aI4
aI4
aI1
aI4
aI1
aI2
aI34
aI1
aI10
aI7
aI1
aI1
aI2
aI7
aI2
aI4
aI2
aI2
aI1
aI2
aI1
aI6
aI1
aI1
aI8
aI4
aI1
aI3
aI2
aI8
aI1
aI1
aI2
aI2
aI1
aI3
aI2
aI7
aI2
aI1
aI1
aI2
aI1
aI2
aI1
aI1
aI4
aI1
aI1
aI1
aI2
aI3
aI1
aI1
aI5
aI1
aI6
aI1
aI2
aI1
aI6
aI1
aI4
aI1
aI1
aI1
aI1
aI2
aI1
aI1
aI3
aI1
aI8
aI1
aI1
aI1
aI2
aI1
aI1
aI2
aI1
aI1
aI2
aI2
aI1
aI3
aI1
aI2
aI2
aI13
aI2
aI4
aI1
aI5
aI2
aI1
aI1
aI3
aI1
aI1
aI6
aI1
aI1
aI1
aI4
aI2
aI2
aI10
aI2
aI1
aI1
aI1
aI1
aI4
aI1
aI3
aI3
aI1
aI1
aI1
aI1
aI1
aI1
aI3
aI4
aI1
aI1
aI5
aI11
aI1
aI12
aI1
aI1
aI4
aI1
aI1
aI2
aI1
aI2
aI9
aI2
aI1
aI1
aI2
aI1
aI193
aI1
aI9
aI1
aI4
aI1
aI29
aI1
aI6
aI1
aI1
aI5
aI2
aI5
aI41
aI1
aI1
aI1
aI16
aI2
aI3
aI16
aI1
aI1
aI1
aI1
aI2
aI1
aI1
aI1
aI1
aI1
aI1
aI1
aI1
aI2
aI3
aI30
aI2
aI7
aI1
aI2
aI11
aI1
aI1
aI1
aI14
aI1
aI2
aI8
aI2
aI1
aI3
aI1
aI8
aI1
aI3
aI1
aI1
aI2
aI40
aI8
aI1
aI5
aI33
aI1
aI3
aI6
aI1
aI1
aI2
aI1
aI15
aI6
aI1
aI5
aI6
aI2
aI1
aI1
aI1
aI2
aI56
aI10
aI6
aI4
aI6
aI1
aI15
aI4
aI2
aI2
aI1
aI1
aI3
aI1
aI1
aI1
aI2
aI1
aI3
aI1
aI1
aI1
aI16
aI2
aI1
aI3
aI3
aI6
aI1
aI1
aI2
aI1
aI2
aI5
aI3
aI2
aI15
aI2
aI1
aI1
aI1
aI1
aI1
aI4
aI1
aI1
aI1
aI8
aI1
aI1
aI1
aI2
aI1
aI3
aI3
aI1
aI1
aI1
aI2
aI1
aI1
aI1
aI2
aI2
aI1
aI1
aI1
aI3
aI1
aI2
aI1
aI1
aI6
aI1
aI7
aI1
aI2
aI2
aI1
aI2
aI1
aI1
aI1
aI1
aI4
aI1
aI5
aI2
aI5
aI18
aI1
aI1
aI2
aI14
aI1
aI12
aI1
aI1
aI3
aI7
aI3
aI2
aI4
aI2
aI1
aI1
aI3
aI2
aI3
aI1
aI1
aI1
aI1
aI23
aI1
aI2
aI19
aI2
aI1
aI4
aI3
aI1
aI6
aI2
aI1
aI1
aI1
aI1
aI1
aI1
aI1
aI1
aI1
aI1
aI1
aI1
aI2
aI1
aI2
aI16
aI1
aI5
aI1
aI2
aI1
aI1
aI1
aI2
aI1
aI8
aI1
aI1
aI2
aI2
aI1
aI1
aI37
aI10
aI1
aI3
aI1
aI1
aI1
aI11
aI1
aI4
aI30
aI2
aI1
aI1
aI4
aI1
aI1
aI3
aI1
aI2
aI1
aI1
aI1
aI1
aI69
aI1
aI1
aI6
aI10
aI3
aI144
aI14
aI2
aI38
aI19
aI1
aI1
aI1
aI6
aI1
aI2
aI1
aI1
aI2
aI5
aI2
aI1
aI1
aI1
aI1
aI1
aI1
aI1
aI24
aI1
aI1
aI2
aI1
aI13
aI1
aI19
aI8
aI1
aI2
aI4
aI2
aI1
aI1
aI2
aI1
aI1
aI18
aI5
aI3
aI1
aI3
aI3
aI1
aI3
aI3
aI2
aI1
aI3
aI2
aI3
aI2
aI2
aI1
aI3
aI15
aI1
aI4
aI13
aI4
aI1
aI9
aI1
aI1
aI1
aI4
aI1
aI1
aI3
aI4
aI1
aI1
aI2
aI2
aI1
aI20
aI1
aI2
aI1
aI40
aI1
aI1
aI1
aI1
aI5
aI1
aI1
aI2
aI1
aI1
aI1
aI14
aI9
aI1
aI1
aI1
aI13
aI1
aI2
aI10
aI1
aI6
aI1
aI4
aI1
aI1
aI2
aI2
aI2
aI1
aI5
aI1
aI1
aI1
aI4
aI1
aI2
aI8
aI14
aI1
aI1
aI3
aI2
aI2
aI25
aI1
aI1
aI1
aI1
aI13
aI2
aI2
aI1
aI3
aI6
aI6
aI2
aI19
aI4
aI20
aI4
aI5
aI4
aI1
aI3
aI1
aI1
aI1
aI1
aI1
aI8
aI1
aI1
aI53
aI1
aI1
aI1
aI14
aI30
aI1
aI1
aI2
aI1
aI1
aI1
aI1
aI1
aI1
aI13
aI2
aI2
aI1
aI1
aI1
aI3
aI1
aI1
aI2
aI3
aI1
aI1
aI1
aI7
aI1
aI1
aI3
aI2
aI1
aI111
aI3
aI10
aI16
aI21
aI2
aI6
aI4
aI1
aI1
aI2
aI1
aI160
aI23
aI1
aI13
aI1
aI19
aI6
aI1
aI55
aI8
aI6
aI2
aI156
aI11
aI1
aI17
aI8
aI5
aI1
aI14
aI1
aI2
aI1
aI2
aI157
aI3
aI1
aI1
aI1
aI6
aI10
aI22
aI13
aI2
aI1
aI3
aI1
aI196
aI9
aI9
aI1
aI1
aI3
aI1
aI1
aI1
aI1
aI1
aI34
aI4
aI1
aI1
aI3
aI1
aI1
aI1
aI1
aI1
aI1
aI1
aI1
aI6
aI2
aI1
aI1
aI1
aI11
aI1
aI1
aI1
aI1
aI2
aI3
aI2
aI1
aI2
aI7
aI1
aI7
aI6
aI2
aI1
aI1
aI1
aI1
aI1
aI1
aI1
aI1
aI1
aI1
aI7
aI1
aI1
aI3
aI3
aI1
aI1
aI1
aI2
aI1
aI1
aI1
aI1
aI1
aI4
aI1
aI2
aI1
aI1
aI2
aI2
aI1
aI38
aI2
aI7
aI21
aI4
aI1
aI1
aI1
aI38
aI1
aI1
aI4
aI3
aI3
aI1
aI7
aI1
aI1
aI1
aI1
aI1
aI7
aI3
aI1
aI7
aI2
aI2
aI9
aI3
aI17
aI1
aI2
aI2
aI1
aI1
aI2
aI1
aI1
aI2
aI1
aI1
aI1
aI5
aI1
aI1
aI1
aI1
aI1
aI6
aI1
aI1
aI5
aI1
aI5
aI1
aI1
aI1
aI2
aI1
aI2
aI1
aI1
aI11
aI1
aI2
aI1
aI1
aI1
aI1
aI18
aI1
aI1
aI24
aI4
aI3
aI6
aI3
aI1
aI12
aI4
aI1
aI1
aI2
aI2
aI2
aI1
aI1
aI1
aI1
aI8
aI2
aI4
aI1
aI2
aI1
aI2
aI2
aI30
aI2
aI3
aI5
aI1
aI1
aI1
aI1
aI1
aI1
aI2
aI1
aI1
aI1
aI6
aI1
aI3
aI9
aI1
aI1
aI4
aI1
aI15
aI3
aI4
aI1
aI4
aI1
aI1
aI30
aI1
aI16
aI4
aI2
aI1
aI1
aI1
aI7
aI2
aI1
aI4
aI1
aI1
aI1
aI1
aI4
aI2
aI2
aI1
aI1
aI1
aI3
aI1
aI2
aI3
aI1
aI1
aI1
aI1
aI1
aI1
aI3
aI2
aI2
aI2
aI1
aI1
aI2
aI1
aI3
aI1
aI34
aI4
aI2
aI2
aI13
aI2
aI2
aI9
aI1
aI16
aI5
aI1
aI1
aI5
aI1
aI5
aI1
aI1
aI2
aI1
aI1
aI3
aI1
aI59
aI1
aI4
aI4
aI15
aI2
aI1
aI2
aI2
aI1
aI2
aI1
aI10
aI1
aI25
aI1
aI2
aI1
aI3
aI1
aI5
aI1
aI8
aI1
aI1
aI20
aI1
aI1
aI1
aI7
aI7
aI1
aI1
aI1
aI1
aI4
aI1
aI3
aI1
aI1
aI1
aI1
aI1
aI2
aI1
aI1
aI2
aI6
aI1
aI2
aI1
aI2
aI2
aI1
aI1
aI1
aI7
aI1
aI2
aI43
aI6
aI1
aI6
aI2
aI1
aI8
aI1
aI2
aI5
aI17
aI2
aI1
aI1
aI1
aI3
aI1
aI1
aI7
aI1
aI2
aI2
aI2
aI16
aI1
aI1
aI2
aI1
aI1
aI2
aI2
aI1
aI2
aI4
aI1
aI1
aI1
aI1
aI1
aI1
aI1
aI1
aI1
aI4
aI2
aI1
aI2
aI1
aI1
aI493
aI1
aI11
aI1
aI4
aI1
aI1
aI2
aI63
aI2
aI108
aI1
aI24
aI25
aI4
aI17
aI3
aI5
aI1
aI3
aI4
aI1
aI9
aI3
aI3
aI5
aI1
aI1
aI1
aI1
aI1
aI1
aI1
aI4
aI3
aI1
aI1
aI1
aI1
aI1
aI2
aI1
aI1
aI1
aI7
aI1
aI1
aI1
aI1
aI1
aI2
aI1
aI1
aI2
aI3
aI1
aI2
aI1
aI1
aI1
aI1
aI1
aI3
aI1
aI1
aI3
aI1
aI10
aI1
aI1
aI4
aI1
aI1
aI2
aI1
aI5
aI8
aI1
aI2
aI1
aI6
aI1
aI1
aI12
aI5
aI3
aI1
aI1
aI1
aI1
aI1
aI2
aI1
aI2
aI1
aI1
aI2
aI1
aI1
aI1
aI3
aI1
aI1
aI1
aI1
aI2
aI1
aI2
aI1
aI1
aI1
aI1
aI1
aI8
aI2
aI1
aI1
aI1
aI1
aI1
aI1
aI3
aI3
aI1
aI1
aI4
aI1
aI1
aI3
aI1
aI1
aI6
aI4
aI19
aI2
aI2
aI8
aI2
aI2
aI1
aI6
aI3
aI10
aI6
aI9
aI1
aI1
aI1
aI5
aI1
aI1
aI3
aI7
aI1
aI1
aI1
aI3
aI1
aI1
aI2
aI1
aI1
aI15
aI3
aI1
aI1
aI2
aI1
aI1
aI1
aI4
aI1
aI1
aI1
aI2
aI1
aI1
aI1
aI6
aI3
aI2
aI1
aI1
aI1
aI2
aI4
aI1
aI1
aI1
aI3
aI2
aI1
aI7
aI1
aI1
aI1
aI3
aI1
aI1
aI1
aI5
aI1
aI1
aI1
aI1
aI1
aI2
aI1
aI2
aI1
aI1
aI2
aI2
aI1
aI11
aI2
aI6
aI1
aI2
aI2
aI1
aI1
aI1
aI1
aI1
aI1
aI2
aI1
aI13
aI3
aI1
aI5
aI5
aI1
aI1
aI22
aI2
aI2
aI2
aI1
aI1
aI1
aI2
aI2
aI1
aI2
aI1
aI1
aI1
aI1
aI1
aI1
aI1
aI1
aI1
aI2
aI1
aI1
aI1
aI1
aI1
aI3
aI1
aI4
aI1
aI1
aI5
aI1
aI2
aI2
aI2
aI3
aI1
aI1
aI2
aI1
aI1
aI8
aI1
aI2
aI1
aI1
aI4
aI3
aI1
aI4
aI6
aI1
aI2
aI1
aI1
aI1
aI3
aI1
aI1
aI1
aI1
aI1
aI1
aI2
aI3
aI3
aI1
aI1
aI1
aI1
aI1
aI1
aI3
aI1
aI4
aI1
aI1
aI1
aI1
aI6
aI6
aI1
aI10
aI2
aI1
aI1
aI4
aI1
aI9
aI1
aI1
aI2
aI1
aI1
aI1
aI2
aI1252
aI4
aI1
aI6
aI3
aI24
aI1
aI1
aI5
aI2
aI1
aI1
aI1
aI1
aI100
aI2
aI2
aI26
aI5
aI1
aI2
aI1
aI1
aI4
aI1
aI1
aI9
aI1
aI15
aI1
aI3
aI1
aI1
aI1
aI1
aI1
aI1
aI1
aI1
aI1
aI4
aI2
aI15
aI3
aI1
aI1
aI1
aI137
aI6
aI1
aI27
aI1
aI9
aI1
aI1
aI1
aI4
aI4
aI2
aI15
aI1
aI7
aI18
aI167
aI6
aI1
aI11
aI1
aI7
aI325
aI5
aI30
aI1
aI1
aI1
aI1
aI1
aI9
aI2
aI1
aI1
aI47
aI1
aI1
aI1
aI7
aI2
aI1
aI5
aI1
aI1
aI7
aI1
aI1
aI1
aI2
aI9
aI1
aI2
aI2
aI1
aI3
aI1
aI2
aI2
aI1
aI146
aI4
aI1
aI1
aI1
aI1
aI15
aI3
aI1
aI2
aI1
aI2
aI1
aI8
aI2
aI1
aI1
aI1
aI1
aI1
aI3
aI1
aI1
aI1
aI1
aI1
aI4
aI2
aI2
aI63
aI4
aI1
aI2
aI18
aI9
aI11
aI1
aI1
aI1
aI18
aI1
aI1
aI1
aI37
aI1
aI6
aI1
aI1
aI1
aI2
aI14
aI2
aI1
aI6
aI1
aI1
aI2
aI4
aI3
aI1
aI1
aI1
aI1
aI8
aI4
aI1
aI7
aI1
aI47
aI3
aI6
aI8
aI1
aI8
aI1
aI4
aI2
aI1
aI1
aI1
aI1
aI1
aI1
aI1
aI1
aI2
aI1
aI20
aI1
aI3
aI1
aI2
aI3
aI1
aI10
aI3
aI1
aI1
aI1
aI1
aI17
aI10
aI1
aI2
aI1
aI11
aI1
aI6
aI1
aI2
aI1
aI1
aI1
aI6
aI2
aI1
aI1
aI6
aI5
aI2
aI2
aI1
aI20
aI3
aI3
aI3
aI2
aI4
aI2
aI4
aI1
aI20
aI2
aI1
aI5
aI2
aI3
aI5
aI1
aI3
aI1
aI1
aI23
aI2
aI2
aI1
aI3
aI1
aI1
aI75
aI2
aI15
aI3
aI9
aI3
aI5
aI2
aI29
aI1
aI1
aI2
aI2
aI1
aI2
aI3
aI1
aI15
aI1
aI1
aI1
aI1
aI2
aI2
aI2
aI1
aI12
aI3
aI1
aI2
aI1
aI1
aI1
aI1
aI1
aI5
aI1
aI2
aI1
aI2
aI20
aI1
aI14
aI1
aI1
aI1
aI1
aI3
aI11
aI1
aI42
aI1
aI5
aI1
aI2
aI22
aI1
aI2
aI1
aI1
aI6
aI1
aI3
aI1
aI3
aI1
aI8
aI14
aI24
aI69
aI1
aI3
aI1
aI1
aI2
aI1
aI62
aI1
aI1
aI7
aI7
aI1
aI2
aI1
aI1
aI23
aI3
aI1
aI12
aI2
aI1
aI1
aI37
aI1
aI3
aI83
aI4
aI1
aI1
aI1
aI1
aI8
aI1
aI1
aI5
aI1
aI3
aI1
aI1
aI1
aI17
aI2
aI1
aI3
aI6
aI1
aI1
aI1
aI1
aI12
aI1
aI1
aI4
aI11
aI1
aI1
aI1
aI36
aI1
aI6
aI1
aI1
aI8
aI1
aI7
aI2
aI1
aI3
aI1
aI4
aI4
aI1
aI8
aI1
aI1
aI8
aI1
aI7
aI2
aI1
aI2
aI29
aI1
aI1
aI3
aI1
aI1
aI1
aI23
aI2
aI9
aI2
aI1
aI2
aI1
aI1
aI5
aI7
aI1
aI2
aI1
aI1
aI1
aI1
aI1
aI1
aI1
aI10
aI3
aI2
aI2
aI49
aI3
aI2
aI1
aI2
aI2
aI1
aI7
aI1
aI6
aI1
aI5
aI1
aI3
aI1
aI11
aI1
aI1
aI4
aI1
aI2
aI1
aI1
aI1
aI1
aI2
aI1
aI123
aI7
aI3
aI2
aI1
aI6
aI2
aI1
aI3
aI1
aI1
aI2
aI13
aI1
aI1
aI12
aI2
aI1
aI2
aI1
aI1
aI1
aI2
aI5
aI1
aI1
aI1
aI6
aI1
aI12
aI1
aI2
aI2
aI1
aI1
aI1
aI1
aI3
aI1
aI1
aI3
aI1
aI1
aI1
aI1
aI1
aI2
aI1
aI1
aI1
aI1
aI1
aI1
aI1
aI13
aI1
aI3
aI1
aI1
aI1
aI1
aI1
aI67
aI2
aI1
aI11
aI1
aI1
aI4
aI7
aI3
aI3
aI1
aI1
aI2
aI1
aI1
aI12
aI2
aI6
aI1
aI27
aI5
aI1
aI1
aI16
aI1
aI5
aI30
aI2
aI9
aI1
aI1
aI1
aI7
aI6
aI1
aI1
aI1
aI1
aI2
aI2
aI1
aI1
aI1
aI3
aI1
aI2
aI1
aI2
aI21
aI5
aI1
aI5
aI6
aI1
aI1
aI1
aI1
aI2
aI1
aI1
aI1
aI1
aI1
aI2
aI8
aI2
aI1
aI1
aI1
aI2
aI1
aI3
aI1
aI1
aI1
aI5
aI1
aI1
aI1
aI73
aI3
aI1
aI1
aI15
aI1
aI1
aI1
aI1
aI2
aI1
aI4
aI1
aI1
aI1
aI1
aI1
aI1
aI1
aI3
aI1
aI1
aI3
aI1
aI1
aI1
aI1
aI16
aI3
aI3
aI1
aI1
aI12
aI2
aI1
aI1
aI4
aI3
aI1
aI3
aI1
aI8
aI2
aI1
aI1
aI1
aI3
aI4
aI1
aI1
aI1
aI3
aI1
aI5
aI1
aI1
aI29
aI4
aI1
aI1
aI1
aI2
aI3
aI1
aI1
aI1
aI1
aI1
aI1
aI1
aI1
aI12
aI1
aI1
aI8
aI1
aI1
aI1
aI1
aI1
aI1
aI1
aI6
aI1
aI4
aI1
aI1
aI1
aI5
aI1
aI2
aI1
aI1
aI1
aI1
aI1
aI2
aI1
aI1
aI1
aI108
aI1
aI1
aI2
aI1
aI5
aI1
aI3
aI1
aI4
aI8
aI1
aI1
aI6
aI3
aI2
aI1
aI1
aI1
aI5
aI1
aI1
aI1
aI1
aI2
aI6
aI1
aI1
aI1
aI1
aI1
aI1
aI1
aI1
aI1
aI2
aI8
aI3
aI8
aI4
aI1
aI1
aI1
aI1
aI2
aI1
aI3
aI14
aI1
aI1
aI1
aI2
aI2
aI1
aI1
aI1
aI1
aI1
aI2
aI1
aI2
aI1
aI1
aI1
aI173
aI1
aI1
aI4
aI5
aI2
aI1
aI7
aI1
aI1
aI5
aI165
aI1
aI1
aI1
aI2
aI2
aI1
aI1
aI11
aI6
aI11
aI194
aI10
aI1
aI1
aI1
aI1
aI1
aI2
aI1
aI17
aI2
aI7
aI2
aI2
aI1
aI3
aI3
aI3
aI1
aI2
aI2
aI1
aI7
aI1
aI2
aI1
aI2
aI2
aI1
aI1
aI3
aI2
aI5
aI2
aI3
aI2
aI5
aI1
aI1
aI37
aI1
aI1
aI1
aI1
aI3
aI5
aI1
aI4
aI1
aI2
aI4
aI1
aI8
aI1
aI1
aI1
aI1
aI2
aI1
aI1
aI1
aI1
aI1
aI17
aI1
aI3
aI1
aI1
aI2
aI1
aI7
aI2
aI1
aI1
aI1
aI5
aI2
aI1
aI1
aI3
aI1
aI1
aI1
aI2
aI1
aI10
aI2
aI1
aI1
aI1
aI1
aI4
aI1
aI2
aI5
aI1
aI1
aI1
aI2
aI1
aI1
aI1
aI1
aI2
aI7
aI3
aI1
aI1
aI2
aI1
aI1
aI3
aI1
aI5
aI1
aI2
aI1
aI1
aI1
aI1
aI2
aI1
aI1
aI8
aI4
aI1
aI2
aI1
aI4
aI1
aI2
aI1
aI4
aI3
aI3
aI1
aI2
aI1
aI2
aI1
aI1
aI1
aI1
aI1
aI1
aI1
aI1
aI1
aI2
aI5
aI1
aI2
aI2
aI1
aI5
aI5
aI1
aI2
aI1
aI1
aI144
aI3
aI1
aI9
aI1
aI3
aI1
aI4
aI1
aI8
aI225
aI5
aI3
aI1
aI28
aI2
aI4
aI1
aI3
aI1
aI1
aI1
aI1
aI100
aI3
aI16
aI15
aI1
aI1
aI1
aI1
aI1
aI2
aI1
aI1
aI3
aI1
aI1
aI5
aI2
aI1
aI2
aI15
aI1
aI1
aI1
aI2
aI1
aI2
aI22
aI9
aI2
aI1
aI1
aI4
aI1
aI1
aI2
aI1
aI217
aI2
aI1
aI1
aI7
aI13
aI8
aI2
aI1
aI7
aI1
aI1
aI27
aI1
aI107
aI5
aI1
aI1
aI6
aI12
aI1
aI2
aI1
aI1
aI2
aI1
aI1
aI80
aI6
aI1
aI8
aI7
aI4
aI1
aI2
aI26
aI1
aI75
aI1
aI1
aI6
aI5
aI6
aI1
aI2
aI1
aI1
aI7
aI1
aI2
aI10
aI1
aI1
aI4
aI1
aI2
aI1
aI4
aI1
aI4
aI2
aI14
aI3
aI1
aI1
aI1
aI1
aI1
aI1
aI1
aI2
aI1
aI1
aI8
aI1
aI9
aI1
aI63
aI1
aI1
aI5
aI1
aI43
aI6
aI63
aI14
aI23
aI1
aI2
aI1
aI1
aI1
aI4
aI3
aI41
aI1
aI1
aI1
aI1
aI6
aI1
aI1
aI33
aI1
aI2
aI2
aI6
aI1
aI2
aI10
aI10
aI1
aI18
aI1
aI1
aI3
aI7
aI1
aI194
aI15
aI1
aI2
aI1
aI61
aI1
aI27
aI1
aI1
aI11
aI1
aI1
aI4
aI2
aI1
aI2
aI1
aI39
aI1
aI1
aI1
aI17
aI5
aI24
aI1
aI7
aI1
aI1
aI1
aI2
aI6
aI5
aI1
aI2
aI2
aI157
aI1
aI8
aI1
aI1
aI21
aI22
aI2
aI3
aI1
aI5
aI22
aI2
aI19
aI3
aI4
aI3
aI1
aI1
aI1
aI3
aI2
aI1
aI5
aI1
aI3
aI2
aI3
aI2
aI1
aI2
aI1
aI1
aI7
aI5
aI1
aI1
aI1
aI1
aI2
aI5
aI23
aI1
aI2
aI1
aI1
aI5
aI6
aI38
aI1
aI1
aI12
aI2
aI1
aI3
aI1
aI12
aI2
aI1
aI2
aI5
aI1
aI1
aI46
aI1
aI1
aI1
aI3
aI1
aI68
aI2
aI3
aI1
aI1
aI13
aI1
aI20
aI1
aI4
aI2
aI1
aI1
aI1
aI9
aI2
aI7
aI1
aI1
aI1
aI1
aI1
aI2
aI1
aI1
aI1
aI1
aI1
aI4
aI1
aI1
aI1
aI2
aI1
aI1
aI1
aI1
aI3
aI43
aI1
aI1
aI1
aI1
aI4
aI1
aI1
aI12
aI1
aI6
aI1
aI1
aI25
aI12
aI1
aI16
aI1
aI1
aI5
aI1
aI1
aI20
aI2
aI1
aI1
aI1
aI4
aI3
aI1
aI1
aI12
aI1
aI14
aI2
aI1
aI1
aI5
aI2
aI1
aI6
aI1
aI1
aI27
aI2
aI3
aI2
aI1
aI1
aI13
aI1
aI2
aI1
aI1
aI1
aI1
aI1
aI1
aI1
aI3
aI2
aI17
aI5
aI1
aI1
aI1
aI2
aI2
aI1
aI2
aI3
aI1
aI7
aI1
aI1
aI166
aI2
aI3
aI1
aI9
aI16
aI31
aI1
aI1
aI2
aI2
aI11
aI1
aI1
aI18
aI1
aI1
aI1
aI1
aI1
aI1
aI78
aI4
aI1
aI1
aI7
aI1
aI1
aI4
aI2
aI1
aI8
aI1
aI1
aI2
aI1
aI1
aI138
aI3
aI11
aI2
aI11
aI1
aI1
aI1
aI1
aI1
aI1
aI1
aI50
aI5
aI1
aI1
aI1
aI2
aI3
aI9
aI1
aI2
aI3
aI1
aI1
aI1
aI1
aI25
aI2
aI5
aI1
aI1
aI9
aI2
aI2
aI1
aI1
aI1
aI8
aI1
aI4
aI3
aI2
aI1
aI1
aI9
aI1
aI2
aI5
aI3
aI1
aI1
aI1
aI3
aI1
aI1
aI2
aI2
aI1
aI6
aI1
aI1
aI6
aI1
aI2
aI1
aI1
aI2
aI1
aI1
aI8
aI1
aI1
aI23
aI3
aI1
aI1
aI2
aI1
aI1
aI7
aI3
aI1
aI1
aI30
aI1
aI1
aI4
aI1
aI1
aI1
aI2
aI1
aI13
aI1
aI9
aI1
aI1
aI2
aI1
aI3
aI1
aI1
aI1
aI5
aI1
aI1
aI12
aI1
aI1
aI2
aI1
aI1
aI3
aI1
aI3
aI1
aI2
aI13
aI2
aI5
aI1
aI1
aI22
aI1
aI3
aI1
aI1
aI1
aI20
aI2
aI1
aI1
aI3
aI1
aI2
aI1
aI1
aI1
aI2
aI2
aI52
aI1
aI1
aI4
aI3
aI1
aI1
aI1
aI2
aI1
aI1
aI9
aI1
aI3
aI7
aI1
aI2
aI2
aI2
aI3
aI1
aI3
aI5
aI1
aI1
aI5
aI1
aI1
aI1
aI3
aI1
aI1
aI2
aI1
aI1
aI1
aI2
aI1
aI1
aI86
aI1
aI17
aI1
aI1
aI7
aI5
aI1
aI2
aI4
aI2
aI12
aI1
aI12
aI2
aI17
aI1
aI5
aI20
aI28
aI1
aI2
aI1
aI92
aI16
aI1
aI4
aI16
aI1
aI6
aI1
aI26
aI2
aI2
aI1
aI1
aI31
aI3
aI3
aI40
aI1
aI1
aI4
aI1
aI3
aI1
aI1
aI1
aI1
aI1
aI1
aI1968
aI1
aI6
aI1
aI2
aI1
aI18
aI12
aI2
aI1
aI17
aI3
aI1
aI2
aI7
aI18
aI2
aI1
aI1
aI1
aI1
aI1
aI1
aI2
aI1
aI1
aI1
aI1
aI1
aI1
aI1
aI1
aI1
aI2
aI8
aI1
aI5
aI1
aI2
aI1
aI1
aI27
aI1
aI2
aI1
aI1
aI4
aI1
aI3
aI1
aI5
aI2
aI1
aI1
aI1
aI2
aI2
aI1
aI1
aI29
aI1
aI1
aI3
aI2
aI1
aI1
aI2
aI3
aI16
aI3
aI1
aI1
aI1
aI22
aI1
aI1
aI1
aI2
aI3
aI2
aI3
aI1
aI2
aI43
aI1
aI1
aI3
aI17
aI1
aI7
aI1
aI1
aI1
aI4
aI4
aI2
aI6
aI1
aI6
aI1
aI8
aI5
aI95
aI1
aI1
aI15
aI1
aI1
aI1
aI1
aI2
aI10
aI2
aI3
aI3
aI1
aI4
aI1
aI3
aI73
aI5
aI16
aI5
aI1
aI24
aI4
aI6
aI1
aI1
aI11
aI1
aI1
aI1
aI2
aI10
aI1
aI86
aI1
aI1
aI4
aI1
aI1
aI3
aI1
aI78
aI1
aI4
aI1
aI1
aI2
aI1
aI6
aI3
aI18
aI1
aI1
aI4
aI6
aI3
aI1
aI1
aI1
aI1
aI5
aI1
aI1
aI1
aI1
aI2
aI3
aI1
aI1
aI3
aI3
aI5
aI17
aI1
aI26
aI2
aI1
aI4
aI1
aI1
aI1
aI5
aI1
aI4
aI2
aI1
aI1
aI1
aI2
aI1
aI5
aI2
aI2
aI1
aI1
aI2
aI1
aI55
aI1
aI1
aI5
aI9
aI4
aI11
aI2
aI1
aI1
aI1
aI1
aI3
aI1
aI1
aI8
aI1
aI2
aI1
aI1
aI30
aI1
aI1
aI2
aI1
aI2
aI1
aI5
aI2
aI2
aI1
aI27
aI5
aI1
aI2
aI1
aI104
aI4
aI1
aI5
aI17
aI1
aI10
aI87
aI6
aI10
aI11
aI1
aI1
aI11
aI4
aI2
aI1
aI1
aI1
aI1
aI1
aI2
aI1
aI694
aI1
aI7
aI1
aI1
aI1
aI3
aI1
aI1
aI1
aI10
aI1
aI1
aI2
aI2
aI1
aI4
aI1
aI1
aI7
aI1
aI2
aI2
aI1
aI1
aI1
aI3
aI3
aI2
aI1
aI2
aI2
aI1
aI1
aI122
aI1
aI3
aI2
aI2
aI1
aI1
aI2
aI1
aI1
aI5
aI1
aI1
aI7
aI4
aI2
aI1
aI1
aI1
aI2
aI1
aI1
aI5
aI3
aI1
aI1
aI1
aI2
aI1
aI64
aI13
aI1
aI4
aI1
aI17
aI1
aI1
aI1
aI1
aI1
aI2
aI1
aI1
aI1
aI1
aI1
aI1
aI12
aI1
aI1
aI1
aI1
aI2
aI10
aI1
aI1
aI1
aI9
aI2
aI13
aI1
aI4
aI3
aI1
aI2
aI3
aI1
aI1
aI3
aI1
aI1
aI5
aI1
aI1
aI3
aI2
aI2
aI2
aI1
aI1
aI1
aI3
aI1
aI1
aI4
aI2
aI1
aI2
aI4
aI1
aI1
aI3
aI1
aI3
aI1
aI2
aI2
aI1
aI1
aI6
aI1
aI1
aI1
aI3
aI14
aI1
aI2
aI1
aI1
aI1
aI1
aI1
aI1
aI1
aI1
aI3
aI1
aI1
aI1
aI10
aI3
aI10
aI6
aI1
aI1
aI1
aI2
aI1
aI5
aI58
aI1
aI3
aI1
aI3
aI7
aI1
aI1
aI1
aI1
aI1
aI1
aI1
aI3
aI1
aI1
aI3
aI53
aI3
aI2
aI4
aI1
aI1
aI2
aI2
aI1
aI2
aI5
aI3
aI1
aI1
aI92
aI1
aI1
aI57
aI3
aI1
aI2
aI8
aI1
aI1
aI37
aI6
aI5
aI7
aI2
aI3
aI2
aI1
aI8
aI1
aI1
aI7
aI1
aI3
aI1
aI3
aI1
aI1
aI2
aI7
aI3
aI2
aI1
aI3
aI1
aI2
aI94
aI4
aI1
aI2
aI3
aI10
aI1
aI3
aI4
aI4
aI1
aI1
aI1
aI2
aI1
aI1
aI1
aI1
aI1
aI1
aI1
aI1
aI5
aI16
aI2
aI11
aI1
aI1
aI8
aI2
aI1
aI1
aI1
aI1
aI3
aI1
aI9
aI2
aI3
aI1
aI1
aI1
aI378
aI1
aI1
aI51
aI1
aI1
aI1
aI46
aI2
aI13
aI34
aI5
aI1
aI1
aI4
aI2
aI5
aI1
aI1
aI1
aI1
aI2
aI20
aI1
aI1
aI2
aI1
aI1
aI1
aI1
aI2
aI1
aI2
aI1
aI2
aI1
aI1
aI3
aI1
aI1
aI1
aI4
aI1
aI1
aI3
aI5
aI1
aI16
aI3
aI1
aI15
aI2
aI4
aI6
aI1
aI5
aI4
aI1
aI1
aI1
aI1
aI1
aI1
aI1
aI3
aI469
aI2
aI1
aI24
aI1
aI2
aI1
aI4
aI1
aI2
aI2
aI159
aI15
aI1
aI20
aI1
aI6
aI8
aI1
aI1
aI1
aI52
aI10
aI1
aI1
aI53
aI2
aI5
aI24
aI4
aI28
aI1
aI1
aI22
aI1
aI1
aI1
aI1
aI1
aI110
aI7
aI23
aI6
aI2
aI2
aI2
aI1
aI4
aI3
aI1
aI1
aI724
aI1
aI1
aI27
aI4
aI10
aI1
aI14
aI1
aI1
aI1
aI15
aI4
aI13
aI1
aI1
aI1
aI9
aI1
aI4
aI2
aI1
aI4
aI1
aI2
aI4
aI1
aI1
aI2
aI1
aI1
aI2
aI1
aI1
aI2
aI1
aI1
aI27
aI1
aI1
aI1
aI1
aI1
aI1
aI6
aI1
aI3
aI1
aI1
aI2
aI3
aI1
aI2
aI1
aI3
aI1
aI4
aI3
aI2
aI111
aI3
aI3
aI9
aI2
aI1
aI22
aI1
aI29
aI1
aI1
aI1
aI2
aI1
aI2
aI1
aI4
aI1
aI1
aI4
aI1
aI24
aI1
aI1
aI1
aI1
aI1
aI3
aI2
aI1
aI1
aI1
aI3
aI1
aI1
aI1
aI2
aI1
aI1
aI1
aI1
aI37
aI1
aI1
aI1
aI1
aI1
aI1
aI8
aI1
aI1
aI1
aI11
aI1
aI2
aI3
aI1
aI1
aI1
aI5
aI2
aI1
aI1
aI196
aI1
aI19
aI2
aI7
aI2
aI8
aI2
aI1
aI1
aI1
aI2
aI1
aI1
aI34
aI1
aI1
aI1
aI1
aI2
aI1
aI1
aI12
aI1
aI6
aI1
aI2
aI2
aI2
aI13
aI1
aI9
aI1
aI1
aI2
aI1
aI1
aI1
aI1
aI62
aI1
aI1
aI4
aI15
aI1
aI5
aI2
aI2
aI10
aI1
aI5
aI1
aI1
aI2
aI2
aI1
aI3
aI1
aI2
aI1
aI2
aI1
aI1
aI2
aI1
aI1
aI1
aI1
aI12
aI1
aI2
aI1
aI5
aI9
aI1
aI1
aI3
aI1
aI16
aI1
aI2
aI3
aI1
aI1
aI36
aI1
aI8
aI3
aI1
aI3
aI6
aI1
aI4
aI40
aI1
aI2
aI1
aI3
aI9
aI1
aI22
aI25
aI1
aI1
aI7
aI1
aI1
aI1
aI4
aI1
aI1
aI1
aI1
aI2
aI20
aI1
aI2
aI1
aI1
aI1
aI2
aI1
aI1
aI11
aI1
aI1
aI9
aI1
aI5
aI1
aI4
aI1
aI2
aI1
aI6
aI3
aI1
aI7
aI1
aI3
aI1
aI6
aI1
aI14
aI1
aI1
aI1
aI1
aI1
aI2
aI1
aI1
aI1
aI1
aI1
aI1
aI2
aI1
aI1
aI1
aI1
aI1
aI3
aI1
aI2
aI1
aI23
aI44
aI6
aI2
aI8
aI2
aI2
aI1
aI1
aI1
aI359
aI1
aI30
aI2
aI1
aI1
aI1
aI1
aI1
aI2
aI23
aI9
aI2
aI34
aI1
aI1
aI8
aI3
aI1
aI1
aI1
aI48
aI1
aI1
aI1
aI1
aI1
aI1
aI1
aI3
aI2
aI2
aI4
aI3
aI2
aI1
aI2
aI1
aI52
aI9
aI1
aI9
aI10
aI1
aI1
aI1
aI1
aI188
aI4
aI25
aI1
aI1
aI1
aI2
aI18
aI7
aI3
aI1
aI1
aI1
aI82
aI1
aI9
aI1
aI7
aI1
aI1
aI53
aI1
aI1
aI4
aI1
aI1
aI9
aI1
aI2
aI1
aI6
aI1
aI1
aI1
aI1
aI13
aI5
aI1
aI11
aI1
aI1
aI1
aI1
aI4
aI1
aI1
aI6
aI10
aI1
aI1
aI57
aI1
aI1
aI2
aI2
aI2
aI3
aI1
aI48
aI1
aI1
aI3
aI3
aI4
aI1
aI1
aI4
aI1
aI2
aI8
aI1
aI1
aI1
aI18
aI23
aI2
aI1
aI2
aI1
aI22
aI1
aI1
aI4
aI3
aI2
aI2
aI3
aI1
aI4
aI1
aI1
aI1
aI2
aI1
aI1
aI1
aI1
aI4
aI1
aI1
aI1
aI2
aI4
aI3
aI1
aI1
aI74
aI1
aI1
aI1
aI174
aI2
aI41
aI1
aI9
aI4
aI1
aI1
aI6
aI1
aI8
aI2
aI2
aI3
aI1
aI56
aI2
aI3
aI2
aI5
aI11
aI9
aI1
aI6
aI1
aI2
aI551
aI2
aI4
aI3
aI1
aI1
aI8
aI1
aI1
aI1
aI3
aI1
aI1578
aI1
aI6
aI41
aI2
aI1
aI1
aI2
aI1
aI1
aI2
aI3
aI1
aI1
aI4
aI1
aI1
aI2
aI1
aI1
aI1
aI1
aI1630
aI3
aI2
aI22
aI1
aI84
aI16
aI107
aI1
aI1
aI1
aI1
aI16
aI1
aI1
aI1
aI1
aI19
aI1
aI1
aI1
aI2
aI1
aI2
aI22
aI2
aI1
aI5
aI1
aI1
aI2
aI3
aI1
aI241
aI2
aI5
aI10
aI91
aI1
aI3
aI4
aI4
aI1
aI20
aI2
aI1
aI8
aI1
aI1
aI1
aI1
aI270
aI8
aI16
aI1
aI1
aI1
aI1
aI1
aI1
aI1
aI1
aI34
aI2
aI8
aI2
aI1
aI36
aI6
aI1
aI4
aI1
aI3
aI17
aI1
aI1
aI2
aI1
aI3
aI1
aI1
aI3
aI2
aI1
aI182
aI12
aI12
aI1
aI4
aI21
aI31
aI9
aI1
aI1
aI3
aI1
aI7
aI1
aI5
aI1
aI52
aI1
aI2
aI1
aI1
aI1
aI4
aI1
aI1
aI2
aI1
aI1
aI1
aI3
aI2
aI1
aI1
aI14
aI1
aI1
aI4
aI11
aI1
aI3
aI1
aI1
aI8
aI9
aI2
aI18
aI4
aI2
aI16
aI8
aI3
aI13
aI4
aI6
aI38
aI6
aI1
aI1
aI1
aI1
aI1
aI1
aI1
aI7
aI2
aI2
aI3
aI73
aI14
aI1
aI6
aI1
aI2
aI5
aI1
aI2
aI1
aI1
aI1
aI1
aI84
aI16
aI5
aI9
aI2
aI1
aI1
aI1053
aI16
aI69
aI9
aI1
aI4
aI2
aI5
aI3
aI8
aI1
aI1
aI4
aI530
aI13
aI56
aI1
aI1
aI37
aI1
aI2
aI1
aI11
aI1
aI3
aI2
aI9
aI1
aI1
aI2
aI2
aI1
aI28
aI2
aI7
aI5
aI1
aI42
aI9
aI7
aI6
aI1
aI1
aI2
aI12
aI7
aI25
aI6
aI3
aI1
aI2
aI1
aI15
aI1
aI1
aI1
aI16
aI3
aI5
aI43
aI10
aI1
aI3
aI2
aI15
aI1
aI1
aI2
aI53
aI2
aI1
aI1
aI1
aI1
aI1
aI1
aI1
aI1
aI2
aI3
aI2
aI4
aI2
aI18
aI6
aI3
aI1
aI1
aI1
aI1
aI14
aI1
aI1
aI5
aI2
aI1140
aI18
aI3
aI169
aI1
aI88
aI1
aI16
aI2
aI2
aI1
aI1
aI1
aI2
aI1
aI1
aI1
aI4
aI2
aI4
aI2
aI1
aI2
aI7
aI1
aI1
aI1624
aI6
aI1
aI1
aI3
aI1
aI2
aI1
aI8
aI1
aI15
aI2
aI78
aI1
aI17
aI3
aI1
aI3
aI1
aI1
aI13
aI73
aI5
aI1
aI1
aI3
aI1
aI1
aI3
aI1
aI1
aI3
aI1
aI1
aI2
aI1
aI133
aI2
aI1
aI2
aI2
aI1
aI5
aI22
aI5
aI1
aI1
aI7
aI2
aI4
aI3
aI1
aI2
aI10
aI1
aI1
aI1
aI2
aI2
aI6
aI46
aI1
aI1
aI6
aI59
aI1
aI9
aI2
aI1
aI1
aI1
aI1
aI90
aI1
aI1
aI10
aI1
aI2
aI1
aI25
aI1
aI1
aI3
aI7
aI2
aI1
aI1
aI1
aI1
aI1
aI1
aI1
aI1
aI1
aI84
aI1
aI13
aI2
aI11
aI35
aI1
aI2
aI1
aI1
aI1
aI1
aI1
aI15
aI1
aI1
aI2
aI1
aI1
aI1
aI1
aI2
aI1
aI1
aI1
aI1
aI4
aI1
aI1
aI61
aI1
aI6
aI1
aI1
aI12
aI1
aI2
aI18
aI6
aI5
aI8
aI1
aI1
aI1
aI1
aI3
aI15
aI1
aI1
aI1
aI11
aI3
aI1
aI9
aI2
aI4
aI4
aI1
aI3
aI1
aI34
aI1
aI1
aI1
aI1
aI1
aI1
aI1
aI18
aI2
aI7
aI1
aI1
aI6
aI1
aI3
aI1
aI1
aI31
aI1
aI3
aI2
aI1
aI4
aI7
aI2
aI86
aI3
aI4
aI9
aI7
aI37
aI1
aI1
aI4
aI82
aI1
aI1
aI13
aI1
aI1
aI1
aI1
aI1
aI3
aI4
aI1
aI5
aI1
aI1
aI2
aI3
aI2
aI2
aI595
aI6
aI2
aI3
aI1
aI3
aI4
aI4
aI1
aI3
aI1
aI1
aI3
aI1
aI1
aI1
aI3
aI1
aI9
aI1
aI11
aI2
aI1
aI2
aI1
aI4
aI11
aI1
aI1
aI1
aI3
aI10
aI1
aI1
aI3
aI1
aI13
aI1
aI5
aI25
aI3
aI2
aI1
aI2
aI23
aI1
aI1
aI7
aI4
aI1
aI6
aI2
aI1
aI2
aI1
aI1
aI1
aI1
aI4
aI1
aI2
aI1
aI1
aI1
aI2
aI1
aI1
aI2
aI1
aI30
aI7
aI1
aI1
aI1
aI6
aI60
aI7
aI2
aI8
aI13
aI1
aI3
aI2
aI6
aI1
aI1
aI3
aI2
aI3
aI1
aI2
aI1
aI1
aI1
aI5
aI3
aI3
aI1
aI4
aI1
aI1
aI1
aI3
aI1
aI1
aI1
aI1
aI1
aI5719
aI3
aI119
aI21
aI2
aI450
aI7
aI2
aI27
aI47
aI7
aI5
aI4
aI1
aI3
aI1
aI6
aI1
aI21
aI1
aI1
aI1
aI1
aI2
aI3
aI1002
aI2
aI1
aI1
aI1
aI7
aI1
aI2
aI12
aI1
aI1
aI62
aI2
aI2
aI1
aI1
aI1
aI1
aI1
aI2
aI1
aI1
aI1
aI1
aI1
aI2
aI1
aI1
aI1
aI6
aI1
aI1
aI4
aI1
aI1
aI2
aI1
aI1
aI15
aI1
aI7
aI1
aI1
aI11
aI1
aI2
aI3
aI1
aI1
aI1
aI2
aI2
aI1
aI1
aI4
aI3
aI4
aI3
aI1
aI1
aI1
aI11
aI1
aI2
aI1
aI1
aI6
aI1
aI1
aI1
aI3
aI1
aI5
aI1
aI2
aI1
aI1
aI5
aI2
aI1
aI5
aI1
aI2
aI1
aI4
aI2
aI1
aI2
aI2
aI2
aI1
aI1
aI1
aI1
aI7
aI1
aI3
aI4
aI7
aI3
aI2
aI4
aI2
aI1
aI1
aI2
aI1
aI1
aI12
aI2
aI1
aI1
aI1
aI1
aI2
aI1
aI3
aI1
aI3
aI1
aI1
aI1
aI3
aI1
aI1
aI1
aI1
aI2
aI2
aI3044
aI2
aI2
aI7
aI1
aI2
aI1
aI20
aI2
aI1
aI3
aI1
aI3
aI1
aI2
aI1
aI1
aI1
aI1
aI1
aI1
aI1
aI5
aI6
aI1
aI1
aI1
aI1
aI3
aI3
aI2
aI2
aI2
aI1
aI3
aI6
aI1
aI3
aI1
aI1
aI1
aI4
aI1
aI1
aI1
aI9
aI1
aI2
aI2
aI1
aI2
aI118
aI9
aI15
aI1
aI1
aI2
aI1
aI4
aI1
aI1
aI3
aI1
aI2
aI1
aI1
aI1
aI1
aI1
aI1
aI2
aI1
aI1
aI1
aI1
aI2
aI1
aI1
aI1
aI1
aI1
aI1
aI1
aI1
aI2
aI1
aI1
aI1
aI1
aI2
aI1
aI2
aI1
aI3
aI6
aI6
aI5
aI1
aI1
aI1
aI1
aI1
aI2
aI1
aI1
aI5
aI1
aI3
aI2
aI6
aI2
aI1
aI2
aI6
aI2
aI5
aI7
aI1
aI1
aI1
aI1
aI1
aI1
aI2
aI1
aI3
aI4
aI2
aI1
aI1
aI2
aI3
aI1
aI1
aI1
aI5
aI1
aI1
aI1
aI1
aI1
aI1
aI1
aI2
aI1
aI1
aI1
aI2
aI1
aI1
aI7
aI2
aI3
aI4
aI6
aI4
aI1
aI2
aI2
aI1
aI1
aI2
aI2
aI1
aI21
aI1
aI1
aI1
aI1
aI1
aI6
aI1
aI2
aI1
aI1
aI1
aI1
aI1
aI1
aI1
aI1
aI3
aI1
aI6
aI1
aI4
aI19
aI5
aI5
aI2
aI1
aI1
aI1
aI1
aI3
aI1
aI2
aI1
aI1
aI3
aI11
aI1
aI1
aI11
aI1
aI1
aI2
aI1
aI1
aI1
aI1
aI1
aI1
aI1
aI1
aI6
aI3
aI1
aI1
aI13
aI6
aI2
aI2
aI13
aI1
aI1
aI6
aI1
aI1
aI1
aI1
aI1
aI1
aI1
aI1
aI1
aI7
aI1
aI8
aI1
aI2
aI1
aI2
aI3
aI1
aI1
aI1
aI3
aI1
aI1
aI1
aI1
aI2
aI1
aI195
aI1
aI2
aI1
aI1
aI1
aI1
aI1
aI1
aI1
aI2
aI1
aI4
aI13
aI1
aI1
aI1
aI1
aI1
aI1
aI1
aI5
aI1
aI1
aI1
aI1
aI1
aI11
aI6
aI5
aI2
aI2
aI1
aI2
aI1
aI1
aI1
aI9
aI1
aI1
aI1
aI2
aI2
aI1
aI1
aI1
aI7
aI2
aI1
aI1
aI2677
aI5
aI24
aI1
aI28
aI1
aI13
aI1
aI1
aI5
aI2
aI1
aI19
aI2
aI1
aI1
aI27
aI2
aI1
aI1
aI1
aI1
aI1
aI2078
aI14
aI1
aI3
aI198
aI1
aI1
aI4
aI3
aI2
aI1
aI1
aI2
aI1
aI7
aI84
aI2
aI9
aI2
aI4
aI1
aI3
aI1
aI1
aI1
aI1
aI1
aI1
aI1
aI1
aI1
aI1
aI1
aI1
aI6
aI2
aI1
aI1
aI1
aI1
aI1
aI1
aI4
aI1
aI24
aI1
aI1
aI2
aI10
aI3
aI1
aI1
aI3
aI3
aI1
aI1
aI14
aI1
aI2
aI2
aI1
aI1
aI2
aI5
aI2
aI1
aI2
aI1
aI13
aI1
aI9
aI4
aI1
aI1
aI1
aI1
aI3
aI1
aI15
aI3
aI1
aI2
aI12
aI5
aI3
aI1
aI4
aI1
aI1
aI1
aI1
aI2
aI1
aI1
aI5
aI2
aI1
aI1
aI2
aI1
aI2
aI4
aI1
aI1
aI1
aI6
aI1
aI1
aI1
aI8
aI1
aI5
aI3
aI2
aI1
aI55
aI6
aI6
aI8
aI1
aI7
aI2
aI12
aI2
aI2
aI1
aI35
aI1
aI1
aI1
aI4
aI4
aI3
aI1
aI1
aI1
aI1
aI4
aI3
aI31
aI4
aI4
aI4
aI4
aI1
aI1
aI6
aI1
aI1
aI5
aI2
aI3
aI1
aI38
aI2
aI3
aI18
aI1
aI1
aI1
aI1
aI1
aI1
aI2
aI1
aI1
aI11
aI1
aI1
aI1
aI1
aI1
aI10
aI1
aI143
aI1
aI2
aI1
aI1
aI29
aI1
aI14
aI3
aI1
aI2
aI16
aI1
aI1
aI3
aI1
aI1
aI11
aI1
aI1
aI1
aI1
aI1
aI1
aI1
aI1
aI1
aI1
aI74
aI2
aI28
aI3
aI5
aI2
aI1
aI3
aI12
aI6
aI1
aI8
aI3
aI1
aI86
aI1
aI1
aI3
aI2
aI3
aI1
aI1
aI1
aI6
aI1
aI8
aI2
aI2
aI2
aI1
aI2
aI2
aI5
aI176
aI9
aI2
aI16
aI1
aI17
aI19
aI2
aI4
aI4
aI3
aI7
aI1
aI5
aI10
aI1
aI1
aI5
aI6
aI1
aI36
aI4
aI8
aI10
aI7
aI1
aI1
aI2
aI1
aI1
aI1
aI38
aI4
aI5
aI1
aI5
aI1
aI1
aI1
aI7
aI1
aI4
aI4
aI6
aI1
aI8
aI1
aI1
aI1
aI13
aI1
aI4
aI28
aI2
aI12
aI2
aI2
aI11
aI2
aI1
aI9
aI1
aI1
aI8
aI1
aI1
aI1
aI3
aI7
aI1
aI1
aI1
aI5
aI1
aI4
aI3
aI2
aI1
aI4
aI1
aI1
aI2
aI1
aI2
aI490
aI1
aI25
aI4
aI1
aI17
aI3
aI1
aI14
aI1
aI16
aI2
aI56
aI7
aI57
aI2
aI1
aI1
aI1
aI15
aI4
aI1
aI7
aI1
aI1
aI4
aI6
aI1
aI1
aI1
aI2
aI1
aI28
aI4
aI1
aI1
aI1
aI2
aI2
aI1
aI3
aI8
aI2
aI3
aI24
aI1
aI3
aI2
aI4
aI1
aI152
aI9
aI17
aI1
aI20
aI1
aI4
aI2
aI1
aI27
aI1
aI4
aI1
aI29
aI4
aI2
aI1
aI2
aI6
aI3
aI1
aI2
aI8
aI1
aI1
aI1
aI1
aI3
aI7
aI1
aI1
aI2
aI1
aI1
aI1
aI2
aI1
aI1
aI1
aI1
aI2
aI1
aI2
aI1
aI25
aI5
aI3
aI1
aI11
aI1
aI4
aI2
aI1
aI3
aI1
aI1
aI1
aI8
aI1
aI7
aI1
aI2
aI1
aI2
aI2
aI18
aI1
aI1
aI2
aI2
aI1
aI10
aI1
aI3
aI4
aI2
aI1
aI68
aI1
aI3
aI5
aI2
aI2
aI1
aI46
aI1
aI5
aI1
aI4
aI1
aI2
aI1
aI1
aI1
aI1
aI30
aI4
aI1
aI3
aI1
aI2
aI2
aI3
aI1
aI4
aI3
aI1
aI2
aI5
aI1
aI1
aI31
aI1
aI2
aI9
aI2
aI2
aI1
aI2
aI2
aI1
aI1
aI1
aI71
aI1
aI1
aI4
aI7
aI1
aI4
aI1
aI3
aI50
aI2
aI4
aI1
aI9
aI5
aI1
aI3
aI1
aI6
aI1
aI1
aI8
aI1
aI2
aI3
aI8
aI5
aI1
aI14
aI2
aI2
aI22
aI8
aI1
aI10
aI1
aI1
aI1
aI7
aI1
aI1
aI5
aI1
aI26
aI2
aI3
aI3
aI148
aI3
aI13
aI17
aI5
aI1
aI1
aI1
aI1
aI1
aI1
aI1
aI4
aI1
aI1
aI19
aI1
aI1
aI1
aI1
aI1
aI58
aI3
aI7
aI1
aI1
aI2
aI7
aI3
aI1
aI18
aI4
aI15
aI1
aI3
aI2
aI19
aI1
aI1
aI1
aI1
aI1
aI8
aI11
aI1
aI1
aI1
aI7
aI2
aI18
aI7
aI4
aI1
aI5
aI61
aI1
aI4
aI1
aI1
aI8
aI3
aI39
aI561
aI61
aI1
aI1
aI1
aI1
aI1
aI1
aI7
aI41
aI2
aI1
aI9
aI35
aI1
aI3
aI1
aI6
aI1
aI1
aI1
aI1
aI3
aI2
aI1
aI1
aI2
aI1
aI1
aI1
aI4
aI3
aI1
aI8
aI1
aI1
aI2
aI1
aI16
aI2
aI1
aI4
aI2
aI2
aI6
aI1
aI1
aI111
aI3
aI1
aI10
aI1
aI6
aI13
aI2
aI1
aI76
aI6
aI9
aI1
aI4
aI2
aI22
aI4
aI1
aI4
aI202
aI5
aI9
aI1
aI1
aI21
aI1
aI4
aI2
aI1
aI2
aI4
aI1
aI1
aI1
aI92
aI7
aI1
aI1
aI8
aI4
aI1
aI1
aI1
aI1
aI1
aI1
aI1
aI1
aI9
aI2
aI8
aI1
aI4
aI1
aI457
aI1
aI4
aI1
aI4
aI1
aI1
aI4
aI1
aI9
aI1
aI1
aI6
aI1
aI5
aI7
aI3
aI1
aI1
aI2
aI1
aI2
aI1
aI1
aI1
aI3
aI1
aI1
aI9
aI1
aI5
aI1
aI4
aI1
aI1
aI1
aI2
aI1
aI1
aI2
aI4
aI13
aI1
aI2
aI2
aI2
aI2
aI1
aI11
aI1
aI2
aI1
aI1
aI1
aI1
aI1
aI1
aI24
aI7
aI1
aI1
aI7
aI5
aI3
aI1
aI6
aI1
aI46
aI5
aI1
aI5
aI7
aI1
aI1
aI2
aI1
aI17
aI1
aI3
aI5
aI1
aI2
aI2
aI1
aI119
aI1
aI7
aI1
aI12
aI2
aI3
aI138
aI3
aI1
aI13
aI9
aI2
aI4
aI4
aI1
aI1
aI7
aI53
aI2
aI1
aI6
aI1
aI1
aI37
aI3
aI1
aI9
aI12
aI3
aI1
aI2
aI4
aI2
aI4
aI4
aI6
aI1
aI2
aI1
aI5
aI1
aI2
aI1
aI6
aI4
aI1
aI1
aI6
aI1
aI1
aI5
aI5
aI4
aI8
aI2
aI4
aI1
aI4
aI1
aI1
aI1
aI1
aI1
aI4
aI4
aI1
aI1
aI1
aI1
aI1
aI1
aI98
aI1
aI1
aI1
aI1
aI7
aI1
aI33
aI6
aI2
aI1
aI1
aI1
aI264
aI21
aI18
aI4
aI2
aI11
aI1
aI8
aI1
aI60
aI2
aI2
aI1
aI1
aI1
aI1
aI8
aI1
aI1
aI1
aI450
aI41
aI1
aI3
aI147
aI1
aI16
aI1
aI12
aI1
aI4
aI43
aI1
aI5
aI1
aI1
aI4
aI3
aI5
aI20
aI2
aI5
aI4
aI70
aI2
aI3
aI1
aI1
aI13
aI2
aI1
aI1
aI1
aI56
aI3
aI2
aI11
aI756
aI15
aI3
aI1
aI53
aI1
aI1
aI1
aI1
aI1
aI2
aI1
aI1
aI1
aI1
aI1
aI1
aI1
aI1
aI1
aI63
aI21
aI2
aI20
aI28
aI2
aI4
aI28
aI1
aI9
aI1
aI59
aI2
aI1
aI4
aI4
aI36
aI1
aI1
aI23
aI1
aI1
aI3
aI3
aI1
aI1
aI3
aI1
aI2
aI1
aI1
aI1
aI6
aI2
aI1
aI1
aI1
aI1
aI1
aI1
aI5
aI2
aI1
aI1
aI1
aI12
aI5
aI1
aI4
aI1
aI1
aI1
aI2
aI1
aI4
aI3
aI1
aI1
aI2
aI1
aI3
aI5
aI1
aI1
aI1
aI3
aI1
aI2
aI1
aI16
aI1
aI1
aI1
aI1
aI1
aI2
aI1
aI15
aI1
aI1
aI2
aI2
aI7
aI1
aI29
aI6
aI3
aI1
aI3
aI1
aI25
aI10
aI7
aI1
aI13
aI1
aI2
aI1
aI1
aI1
aI1
aI57
aI2
aI1
aI14
aI70
aI7
aI1
aI19
aI1
aI1
aI204
aI1
aI6
aI1
aI4
aI5
aI1
aI2
aI5
aI1
aI1
aI29
aI1
aI6
aI1
aI2
aI7
aI2
aI1
aI1
aI1
aI1
aI1
aI40
aI1
aI3
aI6
aI14
aI2
aI1
aI1
aI1
aI1
aI1
aI1
aI1
aI1
aI2
aI1
aI1
aI11
aI2
aI1
aI2
aI1
aI17
aI2
aI7
aI2
aI1
aI2
aI2
aI2
aI2
aI25
aI2
aI6
aI1
aI9
aI445
aI1
aI4
aI1
aI85
aI1
aI1
aI33
aI1
aI2
aI2
aI5
aI2
aI1
aI1
aI1
aI1
aI1
aI1
aI11
aI1
aI5
aI2
aI1
aI1
aI1
aI1
aI1
aI1
aI463
aI27
aI2
aI64
aI1
aI1
aI62
aI1
aI1
aI7
aI1
aI1
aI3
aI1
aI1
aI1
aI1
aI1
aI5
aI5
aI2
aI2
aI1
aI3
aI1
aI1
aI5
aI1
aI13
aI2
aI1
aI1
aI27
aI1
aI4
aI1
aI1
aI9
aI9
aI1
aI2
aI1
aI1
aI137
aI1
aI1
aI2
aI3
aI13
aI1
aI1
aI4
aI1
aI4
aI2
aI13
aI1
aI3
aI3
aI1
aI6
aI1
aI16
aI3
aI1
aI1
aI1
aI1
aI5
aI1
aI1
aI84
aI2
aI6
aI1
aI6
aI1
aI2
aI4
aI1
aI1
aI2
aI2
aI1
aI1
aI4
aI1
aI1
aI2
aI2
aI1
aI36
aI1
aI1
aI1
aI4
aI1
aI45
aI4
aI1
aI1
aI1
aI122
aI3
aI4
aI2
aI4
aI1
aI2
aI2
aI1
aI3
aI1
aI1
aI1
aI1
aI8
aI1
aI7
aI5
aI3
aI1
aI1
aI1
aI1
aI2
aI1
aI2
aI1
aI1
aI12
aI3
aI1
aI93
aI7
aI7
aI1
aI10
aI1
aI1
aI2
aI1
aI39
aI5
aI1
aI1
aI1
aI16
aI1
aI4
aI3
aI2
aI1
aI1
aI2
aI1
aI2
aI1
aI1
aI1
aI1
aI1
aI109
aI1
aI14
aI8
aI1
aI2
aI1
aI1
aI1
aI1
aI2
aI1
aI452
aI1
aI1
aI2
aI1
aI3
aI1
aI24
aI2
aI1
aI1
aI1
aI1
aI1950
aI53
aI1
aI5
aI1
aI204
aI1
aI1
aI1
aI2
aI1
aI2
aI1
aI70
aI2
aI1
aI1
aI2
aI3
aI15
aI1
aI75
aI1
aI6
aI15
aI10
aI2
aI30
aI2
aI2
aI1
aI2
aI1
aI1
aI13
aI3
aI1
aI1
aI1
aI6
aI1
aI1
aI1
aI10
aI1
aI1
aI1
aI1
aI1
aI2
aI1
aI1
aI1
aI2
aI1
aI1
aI1
aI1
aI2
aI94
aI9
aI7
aI3
aI1
aI1
aI3
aI1
aI19
aI1
aI2
aI1
aI1
aI2
aI1
aI6
aI1
aI4
aI2
aI3
aI1
aI1
aI1
aI2
aI1
aI25
aI1
aI206
aI4
aI30
aI1
aI26
aI2
aI1
aI15
aI1
aI3
aI2
aI1
aI1
aI2
aI1
aI3
aI6
aI1
aI1
aI11
aI1
aI5
aI2
aI30
aI5
aI2
aI18
aI7
aI1
aI15
aI2
aI1
aI3
aI1
aI1
aI1
aI2
aI6
aI1
aI1
aI1
aI1
aI35
aI3
aI4
aI1
aI4
aI1
aI1
aI13
aI1
aI4
aI10
aI4
aI9
aI1
aI1
aI6
aI3
aI39
aI1
aI6
aI1
aI1
aI10
aI1
aI43
aI2
aI1
aI1
aI13
aI1
aI9
aI1
aI1
aI2
aI1
aI1
aI1
aI2
aI11
aI1
aI1
aI1
aI1
aI1
aI1
aI8
aI1
aI11
aI2
aI2
aI1
aI1
aI145
aI1
aI2
aI2
aI1
aI2
aI1
aI1
aI6
aI8
aI23
aI15
aI2
aI1
aI2
aI1
aI5
aI1
aI1
aI1
aI5
aI4
aI9
aI1
aI1
aI1
aI1
aI1
aI2
aI1
aI2
aI1
aI5
aI1
aI1
aI1
aI1
aI1
aI95
aI2
aI5
aI7
aI3
aI1
aI19
aI1
aI2
aI329
aI3
aI2
aI20
aI2
aI1
aI3
aI3
aI2
aI1
aI1
aI1
aI1
aI5
aI1
aI6
aI2
aI1
aI2
aI1
aI8
aI1
aI3
aI15
aI1
aI7
aI1
aI1
aI1
aI1
aI3
aI2
aI1
aI1
aI3
aI2
aI1
aI2
aI2
aI1
aI2
aI1
aI13
aI2
aI2
aI1
aI1
aI1
aI1
aI1
aI1
aI1
aI1
aI1
aI1
aI1
aI2
aI6
aI1
aI9
aI3
aI5
aI1
aI1
aI2
aI1
aI1
aI1
aI1
aI2
aI7
aI2
aI2
aI1
aI6
aI1
aI2
aI2
aI1
aI1
aI1
aI1
aI1
aI1
aI1
aI1
aI1
aI1
aI1
aI2
aI1
aI3
aI9
aI1
aI1
aI1
aI2
aI1
aI1
aI1
aI1
aI1
aI1
aI7
aI2
aI1
aI3
aI1
aI1
aI4
aI1
aI50
aI6
aI13
aI3
aI9
aI1
aI5
aI1
aI1
aI3
aI2
aI4
aI2
aI1
aI2
aI7
aI1
aI4
aI2
aI23
aI1
aI1
aI1
aI1
aI2
aI1
aI4
aI1
aI1
aI7
aI2
aI1
aI1
aI6
aI1
aI8
aI1
aI1
aI1
aI1
aI2
aI13
aI5
aI2
aI2
aI2
aI1
aI3
aI3
aI1
aI1
aI1
aI1
aI11
aI1
aI1
aI2
aI2
aI2
aI1
aI1
aI4
aI1
aI24
aI4
aI2
aI1
aI3
aI1
aI1
aI2
aI1
aI1
aI13
aI1
aI34
aI6
aI4
aI10
aI5
aI1
aI17
aI6
aI1
aI16
aI2
aI1
aI1
aI3
aI3
aI1
aI1
aI3
aI2
aI10
aI1
aI2
aI6
aI9
aI3
aI1
aI2
aI7
aI2
aI3
aI49
aI1
aI2
aI2
aI1
aI1
aI8
aI1
aI1
aI1
aI1
aI5
aI1
aI3
aI7
aI1
aI2
aI1
aI45
aI2
aI1
aI1
aI8
aI1
aI1
aI1
aI1
aI1
aI1
aI7
aI1
aI1
aI1
aI626
aI5
aI2
aI1
aI42
aI8
aI1
aI14
aI38
aI5
aI2
aI1
aI1
aI34
aI1
aI1
aI2
aI32
aI1
aI1
aI2
aI1
aI5
aI1
aI1
aI1
aI3
aI1
aI1
aI1
aI1
aI1
aI402
aI3
aI2
aI1
aI1
aI62
aI2
aI1
aI14
aI13
aI6
aI1
aI19
aI2
aI1
aI6
aI1
aI2
aI8
aI1
aI1
aI2
aI1
aI1
aI1
aI10
aI1
aI4
aI10
aI1
aI1
aI1
aI6
aI1
aI1
aI1
aI2
aI1
aI1
aI7
aI1
aI1
aI3
aI2
aI9
aI7
aI1
aI1
aI1
aI1
aI1
aI37
aI1
aI5
aI2
aI11
aI19
aI2
aI31
aI1
aI4
aI6
aI2
aI5
aI1
aI1
aI8
aI1
aI2
aI1
aI1
aI1
aI290
aI1
aI12
aI2
aI1
aI1
aI1
aI1
aI1
aI2
aI1
aI1
aI1
aI1
aI1
aI1
aI2
aI1
aI3
aI2
aI2
aI1
aI1
aI3
aI1
aI1
aI32
aI14
aI1
aI11
aI1
aI2
aI1
aI1
aI1
aI10
aI1
aI2
aI1
aI3
aI1
aI1
aI9
aI8
aI1
aI1
aI1
aI1
aI2
aI1
aI1
aI1
aI19
aI2
aI1
aI44
aI6
aI1
aI4
aI3
aI1
aI1
aI1
aI5
aI1
aI1
aI1
aI2
aI433
aI2
aI2
aI3
aI1
aI1
aI1
aI4
aI1
aI1
aI4
aI1
aI1
aI1
aI1
aI1
aI1
aI5
aI4
aI1
aI1
aI4
aI1
aI1
aI3461
aI126
aI2
aI24
aI1
aI4
aI1
aI1
aI6
aI14
aI2
aI4
aI2
aI140
aI1
aI5
aI15
aI12
aI2
aI6
aI1
aI1
aI19
aI3
aI4
aI1
aI1
aI1
aI4
aI1
aI3
aI12
aI5
aI22
aI1
aI1
aI131
aI3
aI24
aI6
aI11
aI1
aI7
aI4
aI5
aI2
aI1
aI139
aI45
aI1
aI1
aI1
aI1
aI61
aI1
aI1
aI8
aI5
aI1
aI2
aI3
aI2
aI2
aI1
aI1
aI1
aI1
aI4
aI1
aI5
aI2
aI1
aI2
aI7
aI1
aI1
aI16
aI3
aI2
aI2
aI39
aI1
aI2
aI4
aI2
aI8
aI1
aI1
aI2
aI1
aI42
aI4
aI1
aI1
aI9
aI1
aI1
aI5
aI3
aI6
aI1
aI3
aI1
aI10
aI2
aI1
aI1
aI3
aI1
aI3
aI3
aI2
aI48
aI5
aI1
aI1
aI3
aI2
aI1
aI1
aI3
aI4
aI2
aI1
aI3
aI1
aI5
aI2
aI2
aI3
aI1
aI1
aI1
aI3
aI3
aI262
aI3
aI1
aI1
aI3
aI79
aI1
aI1
aI1
aI1
aI1
aI1
aI3
aI1
aI1
aI1
aI2
aI1
aI1
aI1
aI1
aI1
aI1
aI2
aI1
aI1
aI3
aI4
aI3
aI6
aI56
aI1
aI1
aI6
aI1
aI1
aI40
aI2
aI1
aI1
aI7
aI1
aI1
aI2
aI2
aI13
aI1
aI2
aI1
aI5
aI1
aI6
aI227
aI11
aI15
aI1
aI1
aI1
aI5
aI1
aI1
aI1
aI1
aI1
aI28
aI2
aI2
aI3
aI11
aI1
aI16
aI1
aI1
aI1
aI10
aI1
aI1
aI1
aI1
aI19
aI1
aI3
aI4
aI1
aI1
aI1
aI1
aI2
aI1109
aI7
aI1
aI22
aI2
aI139
aI1
aI1
aI1
aI2
aI5
aI3
aI6
aI1
aI5
aI1
aI4
aI3
aI1
aI4
aI1
aI1
aI36
aI1
aI1
aI1
aI3
aI1
aI1
aI1
aI1
aI1
aI1
aI118
aI1
aI17
aI1
aI4
aI5
aI3
aI1
aI1
aI1
aI2
aI3
aI1
aI1
aI3
aI2
aI328
aI1
aI1
aI1
aI5
aI1
aI1
aI1
aI1
aI14
aI1
aI3
aI16
aI1
aI6
aI1
aI2441
aI5
aI2
aI1
aI1
aI89
aI3
aI1
aI42
aI1
aI1
aI8
aI5
aI1
aI180
aI2
aI1
aI25
aI5
aI1
aI1
aI2
aI1
aI2
aI2
aI4
aI13
aI1
aI2
aI2
aI1
aI1
aI1
aI695
aI26
aI1
aI1
aI1
aI29
aI2
aI1
aI1
aI1
aI13
aI2
aI1
aI9
aI2
aI3
aI16
aI1
aI4
aI1
aI1
aI7
aI4
aI1
aI34
aI7
aI1
aI2
aI2
aI1
aI1
aI1
aI1
aI1
aI2
aI1
aI1
aI1
aI2
aI4
aI6
aI454
aI360
aI90
aI11
aI69
aI1
aI1
aI1
aI1
aI1
aI1
aI1
aI1
aI1
aI1
aI1
aI1
aI3
aI1
aI1
aI1
aI1
aI1
aI1
aI4
aI1
aI1
aI1
aI1
aI2
aI1
aI1
aI1
aI1
aI1
aI2
aI3
aI1
aI1
aI1
aI1
aI1
aI1
aI1
aI1
aI1
aI1
aI1
aI2
aI1
aI2
aI2
aI2
aI1
aI1
aI1
aI2
aI1
aI1
aI8
aI1
aI1
aI1
aI1
aI1
aI20
aI2
aI13
aI1
aI2
aI1
aI12
aI1
aI5
aI2
aI1
aI4
aI1
aI3
aI24
aI1
aI1
aI1
aI1
aI8
aI1
aI5
aI1
aI3
aI3
aI1
aI1
aI1
aI3
aI2
aI1
aI1
aI3
aI4
aI3
aI3
aI3
aI1
aI1
aI1
aI5
aI1
aI9
aI1
aI1
aI1
aI1
aI2
aI1
aI2
aI15
aI3
aI5
aI1
aI3
aI1
aI1
aI1
aI6
aI16
aI2
aI2
aI1
aI1
aI8
aI1
aI2
aI6
aI2
aI1
aI4
aI3
aI1
aI3
aI2
aI1
aI4242
aI21
aI94
aI1
aI16
aI1
aI1
aI36
aI2
aI3
aI1
aI5
aI20
aI7
aI7
aI1
aI1
aI2
aI1
aI3
aI1
aI4
aI1
aI18
aI3
aI1
aI1
aI9
aI1
aI1
aI1
aI1
aI28
aI3
aI6
aI1
aI1
aI1
aI8
aI1
aI8
aI1
aI1
aI43
aI1
aI1
aI33
aI1
aI1
aI2
aI7
aI2
aI1
aI200
aI5
aI1
aI5
aI1
aI1
aI4
aI2
aI1
aI2
aI1
aI1
aI2
aI1
aI2
aI1
aI4
aI1
aI1
aI856
aI1
aI2
aI9
aI7
aI29
aI100
aI3
aI1
aI7
aI450
aI4
aI8
aI1
aI25
aI2
aI14
aI3
aI1
aI84
aI2
aI1
aI2
aI1
aI2
aI1
aI2
aI10
aI25
aI3
aI1
aI2
aI3
aI1
aI1
aI2
aI1
aI10
aI7
aI2
aI1
aI16
aI1
aI4
aI1
aI1
aI2
aI1
aI3
aI1
aI2
aI1
aI2
aI1
aI1
aI6
aI1
aI1
aI4
aI1
aI8
aI1
aI1
aI4
aI1
aI1
aI1
aI704
aI1
aI1
aI1
aI2
aI2
aI1
aI1
aI1
aI3
aI1
aI2
aI8
aI2
aI1
aI1
aI13
aI2
aI1
aI1
aI1
aI2
aI1
aI6
aI1
aI1
aI2
aI1
aI2
aI1
aI2
aI3
aI1
aI2
aI20
aI2
aI1
aI3
aI9
aI3
aI2
aI1
aI1
aI1
aI1
aI2
aI1
aI1
aI2
aI2
aI1
aI16
aI5
aI10
aI3
aI162
aI2
aI8
aI26
aI6
aI2
aI7
aI2
aI1
aI2
aI1
aI8
aI2
aI722
aI1
aI12
aI2
aI7
aI28
aI2
aI1
aI391
aI6
aI1
aI1
aI1
aI1
aI1
aI1
aI1
aI1
aI1
aI29
aI1
aI1
aI1
aI1
aI1
aI3
aI1
aI1
aI1
aI6
aI1
aI2
aI1
aI1
aI1
aI2
aI1
aI2
aI1
aI1
aI1
aI1
aI1
aI19
aI1
aI1
aI2
aI39
aI1
aI1
aI1
aI1
aI1
aI1
aI1
aI1
aI1
aI1
aI1
aI1
aI1
aI1
aI1
aI1
aI1
aI1
aI2
aI3
aI1
aI1
aI1
aI3
aI2
aI1
aI1
aI1
aI3
aI1
aI1
aI1
aI1
aI1
aI1
aI3
aI2
aI2
aI4
aI2
aI1
aI1
aI1
aI1
aI1
aI1
aI1
aI1
aI3
aI1
aI2
aI13
aI3
aI5
aI2
aI6
aI1
aI1
aI226
aI1
aI14
aI3
aI1
aI1
aI1
aI3
aI1
aI1
aI3
aI1
aI11
aI1
aI1
aI2
aI2
aI1
aI1
aI1
aI1
aI1
aI1
aI1
aI2
aI1
aI1
aI1
aI5
aI4
aI1
aI1
aI1
aI2
aI7
aI2
aI13
aI7
aI3
aI1
aI19
aI7
aI2
aI18
aI4
aI1
aI9
aI1
aI8
aI1
aI1
aI1
aI8
aI2
aI3
aI3
aI1
aI36
aI2
aI1
aI4
aI2
aI1
aI1
aI2
aI8
aI1
aI1
aI1
aI1
aI1
aI3
aI1
aI2
aI1
aI1
aI3
aI1
aI1
aI1
aI1
aI1
aI1
aI1
aI1
aI1
aI1
aI1
aI1
aI2
aI15
aI2
aI3
aI1
aI3
aI1
aI1
aI1
aI2
aI1
aI3
aI1
aI3
aI2
aI1
aI2
aI3
aI60
aI5
aI6
aI1
aI1
aI1
aI1
aI2
aI2
aI2
aI2
aI1
aI22
aI1
aI3
aI2
aI1
aI1
aI1
aI1
aI2
aI2
aI1
aI1
aI3
aI1
aI1
aI1
aI1
aI1
aI1
aI143
aI1
aI1
aI6
aI2
aI13
aI1
aI2
aI1
aI2
aI1
aI1
aI16
aI5
aI2
aI5
aI1
aI1
aI1
aI2
aI11
aI3
aI1
aI2
aI32
aI2
aI10
aI28
aI6
aI1
aI4
aI1
aI1
aI7
aI1
aI3
aI1
aI1
aI9
aI1
aI46
aI2
aI1
aI3
aI2
aI1
aI38
aI3
aI1
aI4
aI1
aI1
aI1
aI1
aI1
aI4
aI5
aI4
aI1
aI2
aI7
aI3
aI1
aI3
aI1
aI2
aI1
aI52
aI1
aI1
aI10
aI21
aI3
aI4
aI1
aI1
aI1
aI2
aI4
aI1
aI1
aI8
aI2
aI1
aI1
aI2
aI1
aI18
aI1
aI4
aI2
aI2
aI6
aI64
aI18
aI1
aI1
aI14
aI1
aI1
aI1
aI2
aI1
aI1
aI7
aI4
aI1
aI5
aI1
aI2
aI1
aI2
aI1
aI2
aI1
aI1
aI2
aI2
aI4
aI5
aI1
aI5
aI1
aI1
aI1
aI1
aI1
aI2
aI1
aI6
aI1
aI1
aI2
aI1
aI1
aI1
aI1
aI3
aI14
aI1
aI1
aI2
aI2
aI3
aI2
aI1
aI1
aI1
aI2
aI1
aI1
aI1
aI1
aI1
aI2
aI1
aI1
aI1
aI2
aI1
aI1
aI1
aI1
aI4
aI1
aI32
aI1
aI1
aI2
aI2
aI1
aI1
aI1
aI2
aI4
aI1
aI23
aI1
aI1
aI1
aI1
aI18
aI1
aI6
aI1
aI1
aI2
aI14
aI1
aI2
aI1
aI2
aI5
aI2
aI1
aI1
aI1
aI14
aI1
aI12
aI9
aI1
aI2
aI1
aI2
aI1
aI2
aI2
aI4
aI1
aI3
aI14
aI1
aI7
aI2
aI3
aI2
aI2
aI1
aI1
aI3
aI1
aI1
aI1
aI1
aI1
aI1
aI7
aI1
aI4
aI1
aI4
aI2
aI8
aI1
aI1
aI1
aI4
aI1
aI1
aI1
aI3
aI1
aI27
aI1
aI2
aI7
aI4
aI1
aI1
aI8
aI6
aI2
aI4
aI1
aI2
aI1
aI2
aI1
aI2
aI3
aI1
aI1
aI1
aI1
aI4
aI5
aI1
aI13
aI1
aI3
aI1
aI2
aI1
aI1
aI1
aI1
aI1
aI1
aI2
aI6
aI1
aI1
aI1
aI11
aI1
aI1
aI3
aI1
aI1
aI7
aI4
aI1
aI3
aI3
aI3
aI6
aI1
aI1
aI1
aI1
aI1
aI14
aI1
aI1
aI4
aI1
aI1
aI1
aI1
aI8
aI1
aI2
aI2
aI1
aI1
aI3
aI2
aI1
aI1
aI2
aI1
aI2
aI1
aI7
aI1
aI1
aI4
aI1
aI1
aI22
aI4
aI1
aI3
aI1
aI3
aI8
aI1
aI1
aI1
aI2
aI1
aI1
aI1
aI1
aI2
aI1
aI1
aI1
aI1
aI1
aI1
aI2
aI1
aI1
aI1
aI2
aI6
aI1
aI1
aI1
aI1
aI1
aI1
aI3
aI2
aI4
aI1
aI4
aI1
aI1
aI3
aI1
aI3
aI1
aI2
aI8
aI1
aI8
aI1
aI1
aI1
aI2
aI1
aI1
aI1
aI1
aI1
aI5
aI5
aI1
aI5
aI1
aI1
aI2
aI6
aI1
aI1
aI9
aI12
aI4
aI7
aI1
aI1
aI13
aI2
aI57
aI3
aI1
aI4
aI1
aI4
aI114
aI1
aI19
aI3
aI1
aI8
aI1
aI24
aI1
aI1
aI4
aI19
aI1
aI1
aI3
aI1
aI1
aI4
aI4
aI1
aI1
aI2
aI1
aI1
aI4
aI1
aI1
aI1
aI2
aI4
aI1
aI1
aI1
aI1
aI1
aI3
aI1
aI1
aI1
aI101
aI1
aI11
aI1
aI1
aI10
aI1
aI8
aI4
aI1
aI17
aI2
aI1
aI5
aI9
aI3
aI1
aI4
aI2
aI1
aI9
aI1
aI7
aI1
aI1
aI75
aI1
aI7
aI5
aI5
aI1
aI5
aI42
aI1
aI1
aI8
aI9
aI2
aI1
aI3
aI4
aI1
aI1
aI3
aI1
aI1
aI4
aI1
aI1
aI9
aI2
aI1
aI2
aI28
aI8
aI3
aI1
aI5
aI1
aI2
aI2
aI2
aI2
aI2
aI1
aI1
aI3
aI7
aI1
aI2
aI1
aI1
aI1
aI7
aI4
aI1
aI1
aI1
aI3
aI2
aI33
aI1
aI1
aI1
aI4
aI1
aI9
aI1
aI1
aI2
aI33
aI7
aI2
aI1
aI2
aI4
aI1
aI4
aI1
aI2
aI1
aI4
aI1
aI7
aI1
aI7
aI2
aI1
aI4
aI1
aI1
aI6
aI1
aI4
aI6
aI1
aI1
aI1
aI2
aI1
aI1
aI3
aI192
aI2
aI2
aI3
aI1
aI3
aI1
aI1
aI1
aI2
aI2
aI1
aI1
aI1
aI1
aI1
aI2
aI1
aI1
aI2
aI3
aI2
aI2
aI6
aI1
aI2
aI2
aI1
aI1
aI3
aI1
aI2
aI1
aI5
aI7
aI4
aI3
aI1
aI2
aI4
aI1
aI1
aI23
aI1
aI10
aI1
aI1
aI1
aI2
aI1
aI4
aI1
aI1
aI1
aI1
aI1
aI1
aI1
aI1
aI1
aI1
aI1
aI9
aI2
aI1
aI1
aI2
aI1
aI2
aI1
aI1
aI1
aI1
aI2
aI1
aI1
aI2
aI1
aI13
aI1
aI1
aI2
aI1
aI9
aI3
aI75
aI1
aI4
aI7
aI1
aI17
aI3
aI2
aI6
aI17
aI1
aI3
aI1
aI3
aI4
aI1
aI1
aI6
aI1
aI46
aI1
aI5
aI4
aI9
aI1
aI1
aI6
aI3
aI1
aI4
aI1
aI3
aI3
aI1
aI196
aI1
aI1
aI2
aI9
aI1
aI1
aI15
aI2
aI2
aI1
aI2
aI5
aI1
aI1
aI1
aI1
aI1
aI4
aI1
aI1
aI3
aI25
aI1
aI1
aI1
aI1
aI1
aI1
aI1
aI1
aI1
aI1
aI1
aI3
aI1
aI2
aI2
aI5
aI2
aI1
aI1
aI1
aI1
aI4
aI1
aI1
aI1
aI4
aI7
aI2
aI1
aI19
aI2
aI1
aI1
aI1
aI2
aI1
aI1
aI1
aI2
aI1
aI1
aI1
aI1
aI1
aI1
aI1
aI17
aI3
aI53
aI1
aI1
aI2
aI1
aI4
aI2
aI30
aI7
aI1
aI3
aI1
aI2
aI2
aI6
aI1
aI1
aI12
aI3
aI1
aI1
aI1
aI2
aI1
aI1
aI1
aI2
aI3
aI1
aI2
aI1
aI1
aI36
aI1
aI1
aI3
aI1
aI1
aI10
aI1
aI2
aI2
aI1
aI2
aI1
aI7
aI1
aI2
aI1
aI3
aI1
aI1
aI6
aI8
aI7
aI1
aI1
aI1
aI1
aI3
aI3
aI28
aI1
aI2
aI6
aI4
aI1
aI7
aI1
aI1
aI1
aI1
aI62
aI2
aI20
aI2
aI2
aI13
aI1
aI1
aI2
aI5
aI1
aI1
aI2
aI1
aI4
aI1
aI1
aI1
aI1
aI12
aI1
aI4
aI10
aI1
aI2
aI2
aI1
aI69
aI2
aI14
aI1
aI1
aI1
aI1
aI6
aI1
aI1
aI2
aI1
aI1
aI11
aI1
aI1
aI2
aI1
aI3
aI1
aI2
aI1
aI14
aI4
aI2
aI1
aI6
aI2
aI1
aI5
aI8
aI4
aI1
aI3
aI1
aI1
aI1
aI2
aI3
aI1
aI3
aI2
aI3
aI1
aI5
aI1
aI2
aI5
aI1
aI1
aI9
aI1
aI4
aI2
aI2
aI1
aI14
aI1
aI1
aI1
aI2
aI1
aI1
aI6
aI1
aI1
aI1
aI4
aI1
aI5
aI1
aI1
aI15
aI1
aI2
aI1
aI1
aI1
aI9
aI2
aI24
aI1
aI5
aI5
aI1
aI3
aI2
aI3
aI1
aI1
aI1
aI1
aI1
aI1
aI1
aI3
aI9
aI1
aI1
aI1
aI25
aI1
aI6
aI3
aI1
aI1
aI23
aI1
aI2
aI1
aI1
aI1
aI8
aI1
aI1
aI3
aI1
aI4
aI1
aI1
aI4
aI1
aI1
aI1
aI2
aI1
aI1
aI3
aI3
aI1
aI1
aI1
aI1
aI1
aI1
aI1
aI1
aI1
aI1
aI2
aI1
aI1
aI3
aI7
aI1
aI3
aI9
aI2
aI5
aI1
aI2
aI1
aI1
aI1
aI16
aI1
aI1
aI1
aI44
aI1
aI1
aI2
aI2
aI1
aI1
aI9
aI61
aI3
aI2
aI1
aI2
aI1
aI1
aI5
aI4
aI2
aI7
aI5
aI1
aI1
aI1
aI5
aI1
aI7
aI1
aI3
aI1
aI2
aI1
aI1
aI1
aI2
aI1
aI2
aI13
aI3
aI1
aI7
aI2
aI5
aI1
aI1
aI3
aI1
aI1
aI1
aI2
aI1
aI1
aI5
aI2
aI1
aI1
aI2
aI4
aI1
aI1
aI4
aI2
aI1
aI3
aI4
aI1
aI2
aI3
aI1
aI1
aI1
aI1
aI1
aI1
aI2
aI1
aI1
aI1
aI1
aI1
aI1
aI1
aI4
aI1
aI1
aI22
aI1
aI2
aI3
aI1
aI2
aI1
aI1
aI2
aI5
aI1
aI3
aI2
aI1
aI1
aI5
aI1
aI1
aI1
aI1
aI8
aI1
aI52
aI1
aI6
aI1
aI1
aI1
aI10
aI3
aI1
aI17
aI6
aI4
aI1
aI8
aI2
aI2
aI4
aI1
aI1
aI7
aI1
aI170
aI11
aI1
aI1
aI1
aI3
aI1
aI1
aI2
aI38
aI1
aI4
aI7
aI3
aI1
aI1
aI2
aI4
aI1
aI4
aI1
aI1
aI3
aI1
aI2
aI3
aI3
aI21
aI1
aI1
aI5
aI31
aI1
aI2
aI1
aI2
aI1
aI1
aI5
aI2
aI1
aI2
aI3
aI3
aI1
aI1
aI1
aI2
aI50
aI1
aI2
aI7
aI1
aI1
aI5
aI3
aI1
aI1
aI4
aI49
aI1
aI5
aI1
aI1
aI3
aI1
aI1
aI1
aI31
aI1
aI2
aI1
aI1
aI2
aI22
aI2
aI1
aI1
aI1
aI17
aI5
aI1
aI2
aI2
aI1
aI1
aI1
aI1
aI3
aI3
aI1
aI1
aI2
aI1
aI1
aI11
aI24
aI1
aI1
aI1
aI1
aI1
aI1
aI1
aI1
aI14
aI1
aI1
aI1
aI1
aI3
aI1
aI1
aI3
aI7
aI1
aI3
aI28
aI2
aI2
aI2
aI1
aI3
aI1
aI4
aI3
aI6
aI2
aI1
aI2
aI2
aI1
aI2
aI19
aI1
aI2
aI1
aI2
aI1
aI1
aI1
aI12
aI11
aI2
aI1
aI1
aI2
aI2
aI10
aI2
aI1
aI1
aI2
aI1
aI1
aI1
aI1
aI24
aI2
aI2
aI1
aI1
aI1
aI1
aI6
aI3
aI1
aI2
aI1
aI7
aI1
aI2
aI3
aI1
aI15
aI1
aI2
aI1
aI1
aI2
aI2
aI2
aI2
aI9
aI1
aI1
aI1
aI1
aI13
aI1
aI2
aI5
aI1
aI1
aI1
aI7
aI1
aI79
aI2
aI1
aI1
aI2
aI3
aI1
aI2
aI1
aI1
aI4
aI1
aI2
aI2
aI1
aI1
aI1
aI1
aI1
aI1
aI1
aI3
aI1
aI1
aI1
aI1
aI2
aI1
aI2
aI1
aI2
aI2
aI1
aI1
aI1
aI1
aI1
aI4
aI1
aI1
aI45
aI3
aI2
aI8
aI1
aI2
aI26
aI13
aI1
aI3
aI2
aI1
aI3
aI1
aI3
aI77
aI1
aI1
aI1
aI13
aI4
aI1
aI17
aI2
aI1
aI5
aI1
aI1
aI1
aI1
aI5
aI1
aI1
aI1
aI2
aI2
aI2
aI3
aI13
aI3
aI27
aI6
aI5
aI1
aI2
aI1
aI1
aI1
aI1
aI2
aI3
aI1
aI6
aI1
aI2
aI2
aI1
aI1
aI1
aI1
aI2
aI1
aI2
aI4
aI2
aI1
aI1
aI1
aI1
aI1
aI1
aI5
aI1
aI1
aI1
aI1
aI2
aI6
aI2
aI1
aI1
aI11
aI2
aI2
aI2
aI1
aI1
aI1
aI1
aI1
aI1
aI1
aI16
aI1
aI1
aI1
aI1
aI1
aI3
aI1
aI1
aI2
aI1
aI1
aI6
aI1
aI1
aI1
aI1
aI2
aI2
aI1
aI2
aI1
aI1
aI1
aI1
aI2
aI1
aI2
aI1
aI1
aI3
aI1
aI1
aI2
aI3
aI1
aI1
aI1
aI1
aI1
aI9
aI4
aI1
aI2
aI13
aI2
aI1
aI10
aI1
aI1
aI3
aI7
aI2
aI1
aI1
aI1
aI1
aI1
aI9
aI4
aI1
aI2
aI1
aI4
aI2
aI9
aI2
aI3
aI1
aI2
aI1
aI1
aI4
aI1
aI1
aI1
aI1
aI5
aI4
aI3
aI1
aI3
aI6
aI1
aI6
aI1
aI16
aI1
aI4
aI4
aI11
aI2
aI1
aI2
aI1
aI11
aI7
aI1
aI63
aI6
aI1
aI3
aI3
aI2
aI2
aI1
aI1
aI2
aI15
aI3
aI1
aI2
aI1
aI1
aI8
aI1
aI1
aI2
aI1
aI5
aI1
aI15
aI2
aI6
aI1
aI2
aI2
aI11
aI3
aI1
aI1
aI1
aI1
aI1
aI1
aI2
aI1
aI2
aI4
aI1
aI2
aI4
aI1
aI13
aI1
aI1
aI1
aI1
aI2
aI2
aI1
aI1
aI13
aI1
aI2
aI1
aI1
aI1
aI2
aI2
aI2
aI1
aI1
aI1
aI3
aI2
aI28
aI1
aI6
aI1
aI1
aI5
aI1
aI9
aI2
aI1
aI1
aI2
aI1
aI1
aI1
aI1
aI1
aI1
aI1
aI1
aI12
aI2
aI2
aI2
aI2
aI10
aI1
aI1
aI1
aI1
aI5
aI1
aI2
aI3
aI1
aI1
aI1
aI6
aI1
aI1
aI1
aI1
aI1
aI2
aI1
aI1
aI2
aI2
aI2
aI4
aI1
aI1
aI1
aI2
aI1
aI1
aI3
aI2
aI1
aI1
aI1
aI1
aI3
aI3
aI6
aI1
aI5
aI1
aI1
aI3
aI1
aI1
aI1
aI35
aI4
aI1
aI6
aI1
aI1
aI87
aI3
aI11
aI1
aI1
aI1
aI1
aI2
aI1
aI1
aI7
aI1
aI1
aI1
aI2
aI1
aI2
aI2
aI1
aI1
aI5
aI2
aI1
aI1
aI1
aI6
aI1
aI1
aI1
aI1
aI1
aI1
aI1
aI39
aI11
aI2
aI5
aI6
aI1
aI1
aI1
aI4
aI1
aI1
aI3
aI1
aI1
aI1
aI1
aI1
aI10
aI3
aI1
aI28
aI2
aI7
aI2
aI1
aI1
aI3
aI1
aI5
aI3
aI2
aI1
aI1
aI1
aI9
aI3
aI8
aI1
aI1
aI1
aI1
aI1
aI1
aI2
aI1
aI1
aI1
aI1
aI1
aI7
aI2
aI2
aI4
aI1
aI2
aI2
aI1
aI1
aI2
aI2
aI3
aI1
aI1
aI1
aI5
aI1
aI1
aI3
aI1
aI1
aI1
aI2
aI1
aI5
aI1
aI52
aI1
aI1
aI7
aI7
aI2
aI2
aI9
aI2
aI2
aI21
aI1
aI1
aI1
aI3
aI1
aI1
aI2
aI66
aI1
aI1
aI1
aI1
aI9
aI1
aI1
aI8
aI1
aI5
aI3
aI11
aI1
aI1
aI2
aI1
aI2
aI15
aI1
aI2
aI5
aI2
aI5
aI1
aI1
aI1
aI16
aI1
aI1
aI1
aI3
aI1
aI17
aI1
aI1
aI2
aI1
aI4
aI6
aI1
aI9
aI1
aI2
aI1
aI1
aI5
aI1
aI2
aI1
aI1
aI2
aI13
aI3
aI2
aI1
aI1
aI8
aI2
aI3
aI1
aI1
aI3
aI6
aI1
aI1
aI2
aI2
aI4
aI5
aI8
aI5
aI1
aI7
aI3
aI5
aI1
aI5
aI1
aI16
aI5
aI1
aI5
aI1
aI9
aI2
aI4
aI1
aI1
aI2
aI2
aI1
aI20
aI1
aI2
aI16
aI1
aI33
aI2
aI5
aI92
aI13
aI12
aI7
aI1
aI1
aI2
aI4
aI1
aI1
aI1
aI1
aI12
aI1
aI3
aI1
aI9
aI1
aI1
aI1
aI2
aI2
aI1
aI1
aI29
aI5
aI21
aI1
aI8
aI1
aI1
aI1
aI22
aI1
aI5
aI6
aI1
aI10
aI1
aI1
aI1
aI6
aI3
aI1
aI1
aI10
aI1
aI1
aI17
aI3
aI1
aI1
aI1
aI1
aI1
aI1
aI27
aI1
aI1
aI1
aI2
aI1
aI1
aI1
aI1
aI9
aI1
aI1
aI2
aI1
aI5
aI1
aI4
aI26
aI2
aI1
aI4
aI1
aI4
aI2
aI1
aI1
aI3
aI2
aI1
aI1
aI19
aI1
aI1
aI1
aI1
aI3
aI2
aI1
aI1
aI3
aI3
aI1
aI3
aI1
aI1
aI1
aI1
aI1
aI1
aI8
aI1
aI8
aI2
aI1
aI2
aI1
aI1
aI1
aI1
aI3
aI1
aI62
aI2
aI1
aI1
aI1
aI2
aI2
aI1
aI2
aI1
aI17
aI1
aI3
aI1
aI3
aI2
aI1
aI1
aI1
aI1
aI1
aI1
aI1
aI1
aI1
aI1
aI2
aI1
aI4
aI3
aI1
aI1
aI5
aI8
aI1
aI2
aI1
aI2
aI1
aI38
aI1
aI4
aI1
aI1
aI1
aI5
aI6
aI2
aI1
aI18
aI2
aI9
aI6
aI3
aI1
aI13
aI1
aI2
aI1
aI1
aI2
aI105
aI3
aI1
aI5
aI13
aI2
aI1
aI4
aI2
aI1
aI2
aI3
aI1
aI4
aI16
aI1
aI1
aI4
aI1
aI35
aI1
aI3
aI1
aI1
aI2
aI1
aI1
aI2
aI1
aI1
aI16
aI1
aI5
aI1
aI1
aI1
aI1
aI1
aI3
aI2
aI1
aI61
aI1
aI3
aI1
aI1
aI3
aI1
aI1
aI2
aI1
aI1
aI1
aI1
aI5
aI1
aI8
aI3
aI1
aI3
aI1
aI12
aI1
aI1
aI1
aI1
aI3
aI1
aI9
aI11
aI1
aI7
aI4
aI1
aI1
aI2
aI1
aI6
aI1
aI1
aI2
aI13
aI5
aI1
aI13
aI1
aI1
aI2
aI1
aI43
aI2
aI2
aI1
aI1
aI1
aI3
aI3
aI1
aI86
aI1
aI2
aI3
aI2
aI412
aI12
aI2
aI23
aI6
aI10
aI1
aI2
aI1
aI1
aI65
aI13
aI1
aI1
aI1
aI1
aI4
aI2
aI1
aI1
aI1
aI5
aI1
aI1
aI1
aI1
aI6
aI3
aI1
aI1
aI3
aI18
aI9
aI1
aI2
aI1
aI4
aI1
aI1
aI1
aI1
aI3
aI1
aI1
aI3
aI1
aI10
aI1
aI1
aI1
aI1
aI1
aI2
aI2
aI1
aI1
aI8
aI2
aI1
aI2
aI1
aI1
aI1
aI1
aI1
aI2
aI1
aI1
aI1
aI1
aI1
aI1
aI2
aI1
aI10
aI1
aI7
aI1
aI1
aI34
aI3
aI1
aI1
aI2
aI2
aI3
aI1
aI2
aI1
aI8
aI3
aI1
aI1
aI3
aI1
aI2
aI1
aI2
aI6
aI2
aI2
aI1
aI1
aI1
aI1
aI1
aI1
aI1
aI1
aI1
aI1
aI1
aI1
aI1
aI1
aI2
aI1
aI1
aI2
aI2
aI1
aI9
aI4
aI1
aI1
aI1
aI1
aI1
aI58
aI2
aI1
aI1
aI1
aI1
aI1
aI1
aI1
aI1
aI1
aI1
aI1
aI1
aI1
aI1
aI4
aI2
aI1
aI13
aI10
aI1
aI1
aI3
aI1
aI2
aI12
aI1
aI1
aI2
aI7
aI1
aI13
aI1
aI2
aI5
aI2
aI10
aI2
aI5
aI1
aI1
aI40
aI1
aI1
aI1
aI2
aI3
aI17
aI1
aI2
aI5
aI1
aI7
aI1
aI1
aI5
aI1
aI2
aI1
aI1
aI1
aI1
aI375
aI7
aI1
aI4
aI8
aI2
aI2
aI19
aI80
aI1
aI2
aI2
aI7
aI4
aI1
aI2
aI1
aI65
aI17
aI2
aI1
aI1
aI1
aI21
aI1
aI1
aI1
aI1
aI37
aI96
aI2
aI3
aI15
aI1
aI14
aI1
aI1
aI1
aI3
aI9
aI1
aI4
aI1
aI45
aI1
aI1
aI1
aI1
aI1
aI1
aI1
aI1
aI1
aI1
aI3
aI1
aI1
aI5
aI1
aI1
aI1
aI2
aI2
aI10
aI1
aI2
aI1
aI1
aI7
aI1
aI7
aI2
aI1
aI1
aI7
aI2
aI61
aI1
aI2
aI3
aI1
aI9
aI1
aI1
aI45
aI1
aI4
aI7
aI14
aI1
aI8
aI1
aI3
aI1
aI1
aI45
aI9
aI1
aI2
aI1
aI1
aI1
aI1
aI1
aI2
aI2
aI2
aI1
aI1
aI1
aI1
aI4
aI1
aI1
aI1
aI1
aI2
aI7
aI2
aI1
aI9
aI4
aI1
aI1
aI1
aI8
aI1
aI18
aI1
aI2
aI1
aI1
aI12
aI38
aI1
aI6
aI7
aI1
aI33
aI1
aI12
aI1
aI7
aI1
aI2
aI2
aI1
aI1
aI1
aI1
aI1
aI2
aI2
aI1
aI1
aI1
aI122
aI2
aI1
aI1
aI9
aI5
aI5
aI1
aI17
aI1
aI2
aI5
aI1
aI1
aI1
aI1
aI2
aI18
aI1
aI2
aI1
aI1
aI1
aI1
aI1
aI6
aI1
aI4
aI1
aI1
aI2
aI1
aI9
aI15
aI2
aI2
aI4
aI1
aI10
aI1
aI1
aI3
aI2
aI3
aI1
aI1
aI1
aI41
aI2
aI2
aI3
aI3
aI937
aI3
aI9
aI1
aI2
aI1
aI83
aI1
aI1
aI3
aI1
aI56
aI10
aI2
aI2
aI1
aI2
aI1
aI6
aI1
aI2
aI36
aI3
aI8
aI1
aI2
aI1
aI1
aI6
aI1
aI1
aI1
aI1
aI14
aI1
aI1
aI1
aI1
aI1
aI1
aI1
aI1
aI1
aI1
aI705
aI2
aI16
aI39
aI1
aI2
aI1
aI1
aI1
aI1
aI2
aI1
aI6
aI1
aI1
aI2
aI8
aI1
aI1
aI1
aI2
aI1
aI5
aI1
aI4
aI1
aI3
aI1
aI2
aI1
aI1
aI1
aI1
aI20
aI2
aI4
aI4
aI3
aI2
aI1
aI1
aI6
aI1
aI7
aI1
aI2
aI2
aI2
aI1
aI1
aI15
aI4
aI3
aI2
aI16
aI1
aI1
aI1
aI1
aI2
aI1
aI3
aI1
aI1
aI1
aI1
aI1
aI1
aI2
aI3
aI1
aI1
aI8
aI1
aI7
aI1
aI5
aI1
aI1
aI1
aI4
aI16
aI1
aI5
aI1
aI25
aI1
aI1
aI4
aI1
aI1
aI2
aI1
aI1
aI16
aI2
aI11
aI1
aI460
aI1
aI2
aI1
aI6
aI2
aI1
aI21
aI1
aI1
aI2
aI1
aI1
aI2
aI1
aI1
aI135
aI6
aI11
aI1
aI2
aI5
aI2
aI1
aI3
aI2
aI1
aI2
aI7
aI2
aI38
aI2
aI1
aI5
aI1
aI2
aI1
aI1
aI3
aI1
aI1
aI1
aI2
aI4
aI2
aI1
aI1
aI1
aI1
aI1
aI1
aI1
aI1
aI5
aI1
aI1
aI1
aI5
aI1
aI2
aI7
aI3
aI17
aI2
aI3
aI1
aI38
aI3
aI5
aI3
aI1
aI1
aI1
aI1
aI1
aI8
aI10
aI1
aI32
aI1
aI1
aI1
aI7
aI13
aI1
aI1
aI7
aI1
aI1
aI2
aI1
aI16
aI3
aI2
aI5
aI14
aI61
aI12
aI1
aI1
aI13
aI4
aI4
aI1
aI9
aI1
aI1
aI1
aI1
aI1
aI1
aI1
aI5
aI1
aI57
aI1
aI1
aI1
aI1
aI3
aI1
aI16
aI8
aI2
aI1
aI8
aI1
aI1
aI5
aI1
aI1
aI1
aI1
aI1
aI1
aI1
aI13
aI2
aI1
aI1
aI1
aI1
aI5
aI2
aI1
aI1
aI2
aI16
aI1
aI1
aI2
aI1
aI4
aI3
aI4
aI1
aI40
aI2
aI1
aI1
aI2
aI123
aI1
aI2
aI1
aI1
aI2
aI1
aI6
aI1
aI5
aI54
aI4
aI1
aI1
aI3
aI1
aI1
aI5
aI21
aI1
aI1
aI1
aI7
aI1
aI1
aI1
aI1
aI10
aI1
aI2
aI3
aI2
aI1
aI1
aI1
aI1
aI6
aI2
aI1
aI1
aI411
aI18
aI2
aI76
aI1
aI1
aI24
aI2
aI1
aI7
aI1
aI46
aI6
aI1
aI5
aI2
aI16
aI3
aI2
aI53
aI6
aI11
aI1
aI7
aI1
aI4
aI1
aI9
aI1
aI6
aI1
aI7
aI1
aI1
aI1
aI4
aI1
aI1
aI14
aI1
aI3
aI1
aI1
aI1
aI7
aI1
aI2
aI2
aI1
aI1
aI1
aI4
aI7
aI1
aI2
aI9
aI2
aI1
aI1
aI4
aI1
aI31
aI2
aI6
aI1
aI17
aI3
aI1
aI1
aI2
aI1
aI1
aI2
aI5
aI3
aI6
aI1
aI1
aI1
aI40
aI5
aI1
aI4
aI3
aI5
aI9
aI1
aI1
aI1
aI1
aI1
aI1
aI1
aI2
aI1
aI90
aI1
aI3
aI16
aI3
aI1
aI20
aI14
aI1
aI4
aI3
aI3
aI1
aI2
aI1
aI10
aI1
aI10
aI1
aI1
aI8
aI1
aI2
aI4
aI1
aI1
aI1
aI6
aI1
aI1
aI2
aI1
aI1
aI2
aI2
aI1
aI1
aI1
aI1
aI2
aI1
aI17
aI1
aI1
aI2
aI1
aI1
aI3
aI1
aI1
aI2
aI1
aI2
aI2
aI1
aI1
aI1
aI22
aI1
aI1
aI5
aI3
aI1
aI1
aI1
aI1
aI1
aI19
aI1
aI2
aI2
aI5
aI4
aI1
aI1
aI23
aI1
aI1
aI14
aI1
aI10
aI1
aI1
aI2
aI1
aI1
aI1
aI1
aI7
aI1
aI1
aI11
aI1
aI1
aI1
aI3
aI3
aI1
aI1
aI4
aI1
aI1
aI5
aI1
aI1
aI1
aI1
aI2
aI1
aI1
aI1
aI1
aI2
aI1
aI1
aI1
aI2
aI13
aI1
aI1
aI2
aI1
aI1
aI3
aI1368
aI6
aI7
aI1
aI92
aI2
aI1
aI3
aI1
aI6
aI1
aI1
aI2
aI9
aI2
aI1
aI1
aI17
aI12
aI2
aI2
aI7
aI7
aI1
aI1
aI4
aI1
aI1
aI1
aI9
aI20
aI8
aI5
aI13
aI3
aI1
aI2
aI7
aI2
aI12
aI1
aI4
aI2
aI1
aI1
aI1
aI2
aI1
aI2
aI1
aI1
aI1
aI1
aI1
aI1
aI2
aI1
aI1
aI431
aI1
aI2
aI59
aI1
aI3
aI35
aI1
aI21
aI2
aI106
aI3
aI3
aI3
aI13
aI17
aI7
aI4
aI2
aI9
aI1
aI1
aI32
aI1
aI3
aI16
aI1
aI9
aI1
aI1
aI1
aI1
aI1
aI1
aI1
aI1
aI9
aI2
aI3
aI1
aI46
aI1
aI3
aI2
aI11
aI1
aI29
aI1
aI18
aI3
aI1
aI1
aI3
aI2
aI11
aI114
aI9
aI1
aI6
aI3
aI25
aI3
aI1
aI2
aI42
aI1
aI4
aI7
aI6
aI1
aI1
aI2
aI2
aI3
aI4
aI1
aI10
aI9
aI1
aI3
aI1
aI2
aI2
aI3
aI1
aI1
aI1
aI1
aI15
aI5
aI1
aI1
aI1
aI1
aI1
aI11
aI1
aI2
aI3
aI2
aI2
aI1
aI11
aI2
aI1
aI1
aI4
aI1
aI1
aI1
aI9
aI1
aI1
aI3
aI3
aI4
aI2
aI1
aI2
aI2
aI1
aI329
aI8
aI1
aI10
aI1
aI1
aI28
aI1
aI1
aI3
aI19
aI33
aI4
aI10
aI1
aI1
aI2
aI1
aI1
aI2
aI1
aI1
aI1
aI1
aI2
aI1
aI46
aI5
aI7
aI3
aI1
aI24
aI2
aI1
aI1
aI1
aI2
aI6
aI4
aI1
aI1
aI2
aI14
aI1
aI1
aI2
aI2
aI14
aI6
aI4
aI1
aI4
aI1
aI1
aI1
aI1
aI1
aI1
aI1
aI2
aI5
aI1
aI1
aI1
aI1
aI1
aI1
aI1
aI80
aI6
aI1
aI6
aI1
aI46
aI4
aI5
aI19
aI3
aI2
aI1
aI1
aI1
aI1
aI1
aI6
aI2
aI1
aI1
aI7
aI2
aI1
aI4
aI1
aI3
aI38
aI2
aI16
aI3
aI2
aI2
aI1
aI2
aI1
aI33
aI1
aI7
aI1
aI3
aI1
aI4
aI1
aI1
aI3
aI3
aI1
aI1
aI2
aI1
aI1
aI6
aI1
aI1
aI21
aI1
aI1
aI1
aI1
aI4
aI1
aI4
aI4
aI2
aI8
aI7
aI2
aI1
aI8
aI10
aI1
aI1
aI1
aI1
aI2
aI1
aI1
aI1
aI1
aI1
aI1
aI1
aI3
aI1
aI1
aI1
aI1
aI1
aI2
aI2
aI2
aI1
aI1
aI1
aI3
aI5
aI1
aI1
aI11
aI1
aI1
aI7
aI7
aI1
aI2
aI1
aI1
aI2
aI1
aI3
aI6
aI2
aI1
aI1
aI7
aI1
aI1
aI1
aI1
aI1
aI2
aI1
aI7
aI2
aI1
aI1
aI152
aI5
aI1
aI6
aI2
aI5
aI1
aI36
aI1
aI1
aI13
aI1
aI2
aI1
aI2
aI1
aI7
aI1
aI1
aI1
aI1
aI1
aI26
aI2
aI11
aI1
aI2
aI1
aI1
aI1
aI1
aI5
aI1
aI3
aI1
aI2
aI1
aI71
aI2
aI1
aI6
aI1
aI1
aI1
aI1
aI1
aI4
aI1
aI1
aI4
aI2
aI1
aI1
aI1
aI2
aI1
aI1
aI103
aI4
aI8
aI1
aI1
aI7
aI1
aI1
aI8
aI1
aI3
aI1
aI1
aI23
aI2
aI1
aI1
aI4
aI9
aI5
aI1
aI1
aI1
aI2
aI17
aI1
aI1
aI2
aI4
aI4
aI1
aI1
aI1
aI1
aI1
aI1
aI1
aI1
aI1
aI1
aI1
aI10
aI6
aI8
aI1
aI1
aI1
aI1
aI1
aI3
aI1
aI4
aI1
aI1
aI5
aI1
aI2
aI2
aI1
aI1
aI11
aI2
aI1
aI1
aI5
aI3
aI1
aI1
aI1
aI140
aI4
aI1
aI1
aI1
aI1
aI12
aI1
aI7
aI1
aI1
aI1
aI1
aI1
aI2
aI1
aI1
aI2
aI29
aI1
aI1
aI3
aI1
aI5
aI2
aI5
aI1
aI1
aI1
aI2
aI1
aI1
aI1
aI1
aI1
aI5
aI2
aI1
aI20
aI9
aI4
aI1
aI10
aI3
aI1
aI2
aI12
aI1
aI1
aI17
aI3
aI30
aI2
aI1
aI1
aI3
aI2
aI1
aI1
aI25
aI1
aI1
aI6
aI1
aI1
aI1
aI5
aI2
aI1
aI15
aI1
aI1
aI1
aI1
aI1
aI12
aI1
aI1
aI5
aI2
aI1
aI22
aI5
aI2
aI1
aI5
aI2
aI1
aI2
aI1
aI29
aI14
aI4
aI11
aI2
aI1
aI1
aI3
aI1
aI89
aI4
aI1
aI8
aI9
aI1
aI2
aI2
aI1
aI9
aI1
aI1
aI2
aI1
aI1
aI2
aI1
aI1
aI1
aI1
aI5
aI1
aI7
aI1
aI1
aI2
aI2
aI1
aI1
aI1
aI1
aI3
aI8
aI1
aI5
aI6
aI15
aI4
aI28
aI1
aI1
aI2
aI1
aI2
aI7
aI5
aI1
aI1
aI1
aI6
aI1
aI1
aI2
aI2
aI1
aI1
aI8
aI2
aI39
aI1
aI4
aI5
aI1
aI1
aI5
aI1
aI1
aI2
aI1
aI9
aI2
aI3
aI1
aI10
aI6
aI55
aI1
aI1
aI1
aI12
aI1
aI3
aI5
aI2
aI1
aI18
aI1
aI3
aI1
aI5
aI5
aI1
aI1
aI1
aI1
aI1
aI1
aI6
aI1
aI3
aI2
aI3
aI1
aI1
aI12
aI3
aI10
aI1
aI4
aI1
aI4
aI1
aI1
aI1
aI1
aI2
aI1
aI1
aI2
aI1
aI2
aI7
aI1
aI1
aI4
aI4
aI1
aI1
aI21
aI2
aI6
aI2
aI1
aI1
aI1
aI1
aI1
aI3
aI1
aI1
aI1
aI1
aI1
aI11
aI1
aI1
aI1
aI1
aI1
aI7
aI1
aI1
aI1
aI2
aI1
aI2
aI1
aI1
aI9
aI1
aI1
aI4
aI2
aI1
aI419
aI1
aI1
aI2
aI4
aI5
aI6
aI1
aI1
aI2
aI1
aI3
aI25
aI1
aI7
aI1
aI5
aI21
aI3
aI1
aI1
aI6
aI2
aI1
aI1
aI5
aI7
aI1
aI2
aI2
aI2
aI2
aI2
aI1
aI1
aI1
aI2
aI1
aI2
aI3
aI31
aI4
aI2
aI1
aI1
aI5
aI1
aI4
aI10
aI5
aI1
aI1
aI1
aI1
aI4
aI2
aI10
aI1
aI17
aI16
aI1
aI1
aI1
aI3
aI2
aI2
aI1
aI6
aI1
aI1
aI2
aI53
aI2
aI2
aI1
aI6
aI1
aI1
aI2
aI2
aI1
aI4
aI3
aI2
aI2
aI1
aI2
aI2
aI1
aI3
aI3
aI1
aI1
aI1
aI1
aI1
aI1
aI1
aI4
aI16
aI1
aI2
aI2
aI1
aI3
aI1
aI1
aI1
aI4
aI1
aI1
aI3
aI5
aI1
aI1
aI3
aI1
aI3
aI4
aI2
aI1
aI2
aI1
aI2
aI2
aI85
aI2
aI10
aI1
aI1
aI1
aI2
aI4
aI2
aI3
aI2
aI1
aI2
aI1
aI1
aI2
aI1
aI1
aI2
aI2
aI1
aI1
aI1
aI1
aI2
aI1
aI2
aI3
aI1
aI2
aI1
aI3
aI11
aI1
aI2
aI1
aI2
aI2
aI6
aI2
aI1
aI1
aI4
aI1
aI1
aI2
aI1
aI1
aI1
aI1
aI1
aI1
aI2
aI2
aI2
aI4
aI1
aI2
aI3
aI2
aI1
aI1
aI1
aI2
aI12
aI3
aI1
aI1
aI62
aI3
aI1
aI6
aI2
aI1
aI6
aI8
aI1
aI11
aI1
aI1
aI1
aI2
aI6
aI242
aI1
aI1
aI1
aI1
aI1
aI3
aI3
aI3
aI13
aI2
aI9
aI1
aI2
aI3
aI7
aI7
aI2
aI1
aI1
aI1
aI1
aI1
aI23
aI1
aI5
aI1
aI2
aI6
aI1
aI1
aI2
aI1
aI1
aI1
aI2
aI2
aI1
aI1
aI2
aI1
aI1
aI1
aI75
aI1
aI1
aI1
aI13
aI17
aI15
aI1
aI21
aI2
aI4
aI2
aI2
aI1
aI2
aI7
aI4
aI1
aI1
aI1
aI2
aI1
aI2
aI1
aI2
aI1
aI1
aI1
aI22
aI2
aI5
aI1
aI1
aI1
aI2
aI5
aI1
aI2
aI1
aI1
aI1
aI1
aI1
aI4
aI2
aI7
aI1
aI1
aI1
aI5
aI1
aI1
aI2
aI2
aI321
aI2
aI2
aI19
aI3
aI3
aI22
aI7
aI1
aI1
aI1
aI27
aI6
aI1
aI2
aI2
aI1
aI53
aI8
aI1
aI1
aI3
aI1
aI7
aI3
aI1
aI12
aI1
aI1
aI12
aI1
aI1
aI1
aI1
aI1
aI1
aI1
aI2
aI1
aI4
aI1
aI1
aI1
aI1
aI3
aI1
aI5
aI1
aI1
aI1
aI1
aI1
aI10
aI3
aI1
aI3
aI1
aI7
aI1
aI1
aI1
aI25
aI1
aI1
aI2
aI1
aI1
aI4
aI1
aI1
aI17
aI1
aI1
aI1
aI2
aI1
aI1
aI5
aI1
aI1
aI1
aI1
aI35
aI2
aI1
aI1
aI2
aI24
aI2
aI71
aI1
aI4
aI1
aI15
aI2
aI2
aI2
aI1
aI1
aI2
aI11
aI4
aI281
aI2
aI1
aI11
aI7
aI11
aI1
aI7
aI2
aI1
aI2
aI3
aI2
aI3
aI1
aI1
aI1
aI9
aI1
aI1
aI3
aI3
aI8
aI1
aI1
aI2
aI1
aI1
aI1
aI11
aI2
aI2
aI1
aI2
aI1
aI34
aI1
aI2
aI1
aI1
aI1
aI12
aI1
aI1
aI33
aI1
aI1
aI1
aI1
aI1
aI2
aI1
aI3
aI3
aI2
aI1
aI1
aI2
aI1
aI1
aI7
aI4
aI1
aI2
aI2
aI1
aI1
aI9
aI2
aI1
aI1
aI18
aI1
aI12
aI1
aI1
aI1
aI1
aI1
aI5
aI1
aI3
aI3
aI1
aI1
aI3
aI3
aI1
aI1
aI1
aI2
aI1
aI28
aI517
aI22
aI1
aI5
aI79
aI1
aI1
aI3
aI1
aI1
aI1
aI1
aI1
aI36
aI4
aI1
aI3229
aI3
aI109
aI25
aI1
aI1
aI2
aI1
aI7244
aI3
aI1
aI1
aI1
aI857
aI27
aI1
aI1
aI1
aI115
aI1
aI3
aI1
aI548
aI5
aI2
aI429
aI5
aI67
aI6
aI1
aI1
aI41
aI5
aI593
aI4
aI1
aI14
aI33
aI2
aI1
aI475
aI12
aI1
aI105
aI28
aI1
aI1
aI7
aI165
aI13
aI4
aI1
aI4
aI2
aI1
aI1
aI3
aI1
aI1
aI358
aI5
aI3
aI1
aI1
aI1
aI2
aI686
aI9
aI1
aI1
aI2
aI9
aI1
aI1
aI1
aI1
aI1
aI1
aI1
aI1
aI13
aI2
aI3
aI4
aI5
aI1
aI4
aI5
aI1
aI6
aI141
aI1
aI5
aI132
aI2
aI1
aI16
aI121
aI1
aI7
aI291
aI1
aI12
aI9
aI2
aI17
aI4
aI1
aI12
aI1
aI2
aI1
aI19
aI1
aI2
aI1
aI1
aI1
aI6
aI1
aI1
aI1878
aI15
aI2
aI1
aI37
aI5
aI1
aI2
aI19
aI7
aI3
aI1
aI1
aI1
aI16
aI7
aI2
aI2
aI1
aI7
aI3
aI7
aI156
aI2
aI1662
aI5
aI7
aI8
aI8
aI1
aI1
aI1
aI3
aI1
aI191
aI113
aI1
aI1
aI8
aI68
aI1
aI1
aI11
aI51
aI1
aI1
aI3
aI1
aI1
aI1
aI1
aI1
aI1
aI1
aI5
aI1
aI2
aI2
aI3
aI5
aI1
aI6
aI74
aI1
aI1
aI2
aI1
aI1
aI1
aI1
aI1
aI2
aI6
aI24
aI1
aI1
aI1
aI1
aI4
aI2
aI1
aI1
aI1
aI9
aI3
aI1
aI12
aI2
aI3
aI1
aI1
aI1
aI11
aI2
aI2
aI1
aI1
aI1
aI1
aI87
aI2
aI2
aI1
aI25
aI1
aI1
aI5
aI9
aI1
aI3
aI1
aI10
aI3
aI3
aI8
aI1
aI12
aI1
aI1
aI1
aI1
aI3
aI1
aI2
aI4
aI1
aI14
aI199
aI3
aI14
aI1
aI1
aI1
aI1150
aI2
aI44
aI2
aI3
aI5
aI1
aI3
aI1
aI1
aI1
aI4
aI1
aI11
aI1
aI5
aI5
aI1
aI3
aI2
aI2
aI1
aI1
aI185
aI1
aI1
aI1
aI1
aI1
aI1
aI2
aI316
aI1
aI18
aI1
aI30
aI1
aI2
aI45
aI1
aI2
aI1
aI1
aI1
aI1
aI1
aI1
aI1
aI1
aI1
aI1
aI1
aI1
aI1
aI2
aI4
aI1
aI1
aI4
aI1
aI1
aI1
aI8
aI1
aI2
aI2
aI12
aI2
aI3
aI2
aI12
aI1
aI3
aI4972
aI1
aI6
aI1
aI28
aI6
aI1
aI63
aI1
aI9
aI59
aI4
aI26
aI14
aI7
aI1
aI2
aI1
aI7
aI1
aI1
aI50
aI13
aI13
aI2
aI2
aI5
aI1
aI1
aI1
aI65
aI3
aI2
aI1
aI13
aI1
aI6
aI2
aI20
aI1
aI1
aI3
aI1
aI1
aI1
aI1
aI87
aI3
aI4
aI6
aI10
aI18
aI1
aI1
aI1
aI2
aI301
aI4
aI1
aI43
aI41
aI1
aI2
aI2
aI6
aI1
aI1
aI2
aI1
aI1
aI1
aI18
aI1
aI1
aI1
aI1
aI2
aI1
aI3
aI1
aI7
aI1
aI1
aI4
aI2
aI1
aI16
aI1
aI1
aI1
aI3
aI4
aI2
aI1
aI1
aI10
aI1
aI1
aI1
aI1
aI1
aI31
aI1
aI8
aI3
aI11
aI1
aI7
aI2
aI1
aI2
aI1
aI34
aI15
aI1
aI3
aI2
aI3
aI18
aI2
aI1
aI5
aI3
aI1
aI5
aI1
aI1
aI12
aI1
aI1
aI1
aI1
aI1
aI2
aI3
aI1
aI1
aI3
aI1
aI2
aI1
aI1
aI1
aI2
aI10
aI2
aI1
aI2
aI19
aI3
aI3
aI2
aI11
aI1
aI3
aI3
aI1
aI1
aI1
aI1
aI1
aI1
aI1
aI4
aI1
aI1
aI2
aI1
aI4
aI1
aI4
aI1
aI2
aI2
aI2
aI3
aI3
aI1
aI1
aI2
aI1
aI1
aI8
aI1
aI2
aI9
aI2
aI3
aI3
aI1
aI2
aI1
aI3
aI2
aI1
aI8
aI2
aI1
aI4
aI3
aI1
aI8
aI3
aI12
aI3
aI1
aI1
aI1
aI5
aI15
aI1
aI1
aI1
aI1
aI1
aI1
aI4
aI1
aI4
aI1
aI2
aI19
aI1
aI3
aI11
aI14
aI1
aI1
aI1
aI2
aI1
aI1
aI2
aI1
aI1
aI1
aI7
aI1
aI1
aI1
aI11
aI2
aI1
aI4
aI1
aI1
aI2
aI5
aI2
aI9
aI1
aI1
aI9
aI1
aI5
aI8
aI2
aI1
aI5
aI3
aI1
aI7
aI2
aI13
aI1
aI2
aI1
aI5
aI1
aI1
aI2
aI2
aI1
aI1
aI1
aI12
aI1
aI1
aI4
aI1
aI1
aI1
aI6
aI1
aI2
aI1
aI5
aI1
aI5
aI2
aI1
aI1
aI1
aI2
aI28
aI2
aI2
aI1
aI2
aI1
aI28
aI1
aI8
aI1
aI4
aI5
aI1
aI1
aI1
aI1
aI2
aI1
aI1
aI1
aI1
aI1
aI209
aI2
aI3
aI1
aI1
aI3
aI1
aI1
aI1
aI21
aI3
aI6
aI70
aI4
aI1
aI1
aI14
aI1
aI1
aI1
aI2
aI2
aI1
aI1
aI1
aI3
aI44
aI1
aI1
aI3
aI1
aI1
aI7
aI73
aI2
aI1
aI10
aI2
aI22
aI1
aI1
aI4
aI1
aI1
aI1
aI1
aI1
aI1
aI1
aI18
aI2
aI2
aI1
aI1
aI5
aI2
aI1
aI1
aI1
aI1
aI1
aI3
aI1
aI12
aI6
aI3
aI1
aI70
aI1
aI24
aI1
aI1
aI4
aI1
aI9
aI1
aI1
aI5
aI1
aI20
aI4
aI5
aI5
aI3
aI2
aI2
aI9
aI1
aI4
aI1
aI1
aI13
aI2
aI3
aI1
aI28
aI16
aI1
aI1
aI1
aI1
aI1
aI1
aI1
aI1
aI1
aI1
aI1
aI1
aI158
aI1
aI2
aI1
aI1
aI41
aI3
aI9
aI2
aI1
aI2
aI1
aI5
aI9
aI22
aI1
aI8
aI2
aI1
aI5
aI1
aI1
aI1
aI1
aI6
aI1
aI2
aI1
aI1
aI1
aI1
aI1
aI1
aI4
aI1
aI1
aI1
aI1
aI1
aI1
aI1
aI1
aI2
aI1
aI1
aI1
aI1
aI1
aI1
aI1
aI1
aI2
aI1
aI2
aI1
aI1
aI1
aI2
aI1
aI1
aI2
aI1
aI1
aI1
aI1
aI1
aI1
aI1
aI1
aI1
aI1
aI32
aI3
aI3
aI1
aI1
aI3
aI1
aI1
aI3
aI1
aI1
aI2
aI1
aI1
aI1
aI1
aI2
aI2
aI1
aI1
aI1
aI77
aI1
aI1
aI4
aI1
aI1
aI1
aI1
aI1
aI5
aI20
aI2
aI7
aI3
aI1
aI8
aI1
aI1
aI1
aI1
aI1
aI1
aI1
aI2
aI1
aI1
aI1
aI9
aI6
aI1
aI5
aI1
aI1
aI1
aI1
aI1
aI1
aI1
aI2
aI1
aI1
aI1
aI2
aI1
aI1
aI1
aI1
aI2
aI2
aI1
aI2
aI1
aI9
aI2
aI2
aI1
aI1
aI1
aI1
aI1
aI5
aI1
aI1
aI1
aI1
aI1
aI2
aI1
aI1
aI1
aI1
aI2
aI1
aI1
aI1
aI1
aI3
aI2
aI1
aI1
aI10
aI1
aI1
aI1
aI1
aI1
aI1
aI1
aI1
aI2
aI1
aI1
aI4
aI1
aI1
aI1
aI4
aI1
aI3
aI1
aI1
aI1
aI9
aI1
aI1
aI3
aI11
aI1
aI1
aI13
aI1
aI1
aI1
aI2
aI1
aI1
aI35
aI1
aI1
aI1
aI1
aI1
aI1
aI2
aI1
aI1
aI1
aI1
aI4
aI1
aI2
aI1
aI2
aI2
aI1
aI1
aI1
aI1
aI1
aI1
aI1
aI1
aI1
aI1
aI1
aI1
aI16
aI1
aI3
aI1
aI1
aI2
aI1
aI2
aI1
aI1
aI1
aI1
aI1
aI2
aI1
aI1
aI1
aI1
aI1
aI1
aI1
aI1
aI1
aI1
aI1
aI1
aI1
aI1
aI1
aI1
aI1
aI1
aI1
aI1
aI1
aI1
aI1
aI1
aI1
aI1
aI1
aI1
aI2
aI1
aI1
aI1
aI1
aI1
aI1
aI3
aI2
aI3
aI1
aI1
aI1
aI1
aI1
aI1
aI2
aI1
aI1
aI1
aI1
aI1
aI4
aI1
aI1
aI1
aI1
aI1
aI1
aI1
aI1
aI1
aI1
aI1
aI1
aI1
aI1
aI1
aI2
aI1
aI1
aI1
aI1
aI1
aI1
aI1
aI1
aI2
aI1
aI3
aI1
aI1
aI1
aI1
aI1
aI1
aI1
aI1
aI1
aI1
aI1
aI1
aI1
aI1
aI1
aI11
aI10
aI1
aI1
aI63
aI1
aI1
aI1
aI1
aI1
aI1
aI1
aI1
aI1
aI1
aI1
aI1
aI1
aI1
aI5
aI2
aI1
aI1
aI1
aI1
aI1
aI1
aI1
aI2
aI1
aI1
aI2
aI1
aI1
aI1
aI1
aI1
aI1
aI2
aI10
aI1
aI1
aI283
aI1
aI1
aI1
aI1
aI1
aI1
aI16
aI3
aI2
aI1
aI1
aI1
aI1
aI1
aI479
aI1
aI1
aI1
aI5
aI1
aI1
aI1
aI1
aI1
aI1
aI4
aI1
aI1
aI1
aI1
aI6
aI1
aI2
aI5
aI1
aI1
aI1
aI1
aI5
aI1
aI363
aI8
aI2
aI14
aI1
aI58
aI2
aI100
aI6
aI6
aI1
aI1
aI5
aI1
aI2
aI2
aI1
aI1
aI2
aI1
aI4
aI1
aI1
aI3
aI1
aI1
aI1
aI1
aI1
aI1
aI1
aI1
aI1
aI5
aI9
aI3
aI3
aI1
aI3
aI1
aI3
aI2
aI1
aI1
aI1
aI2
aI1
aI1
aI1
aI1
aI11
aI1
aI1
aI3
aI1
aI1
aI3
aI1
aI1
aI30
aI2
aI2
aI3
aI1
aI1
aI19
aI2
aI3
aI3
aI4
aI2
aI1
aI2
aI2
aI5
aI1
aI3
aI1
aI1
aI3
aI1
aI2
aI4
aI1
aI8
aI1
aI1
aI1
aI1
aI2
aI1
aI1
aI1
aI1
aI1
aI1
aI2
aI1
aI1
aI3
aI1
aI1
aI5
aI10
aI1
aI1
aI1
aI1
aI1
aI1
aI1
aI1
aI1
aI1
aI1
aI1
aI4
aI7
aI1
aI1
aI4
aI1
aI1
aI1
aI8
aI2
aI1
aI1
aI1
aI1
aI14
aI4
aI1
aI5
aI1
aI1
aI1
aI3
aI1
aI1
aI1
aI1
aI3
aI1
aI1
aI7
aI1
aI1
aI1
aI1
aI3
aI2
aI1
aI1
aI1
aI1
aI1
aI1
aI4
aI1
aI1
aI9
aI1
aI2
aI1
aI1
aI20
aI2
aI10
aI2
aI1
aI280
aI8
aI2
aI3
aI2
aI1
aI3
aI5
aI3
aI1
aI3
aI1
aI1
aI3
aI1
aI1
aI1
aI11
aI2
aI1
aI6
aI4
aI2
aI1
aI1
aI5
aI2
aI1
aI1
aI3
aI1
aI18
aI1
aI1
aI2
aI1
aI2
aI48
aI4
aI1
aI2
aI1
aI1
aI1
aI63
aI17
aI1
aI9
aI8
aI5
aI2
aI2
aI1
aI11
aI9
aI7
aI1
aI2
aI2
aI1
aI1
aI7
aI1
aI15
aI2
aI4
aI2
aI1
aI9
aI1
aI1
aI58
aI2
aI1
aI3
aI11
aI1
aI19
aI2
aI1
aI12
aI1
aI1
aI1
aI1
aI8
aI2
aI12
aI4
aI1
aI1
aI1
aI1
aI1
aI6
aI1
aI1
aI1
aI1
aI1
aI1
aI49
aI1
aI4
aI8
aI1
aI1
aI1
aI1
aI1
aI2
aI1
aI4
aI1
aI4
aI2
aI3
aI1
aI1
aI2
aI1
aI2
aI1
aI1
aI5
aI2
aI2
aI10
aI15
aI1
aI2
aI1
aI1
aI18
aI7
aI1
aI1
aI8
aI1
aI2
aI1
aI1
aI1
aI1
aI2
aI1
aI3
aI9
aI1
aI2
aI1
aI1
aI1
aI1
aI2
aI1
aI1
aI7
aI2
aI1
aI4
aI16
aI1
aI1
aI2
aI1
aI2
aI7
aI5
aI23
aI1
aI1
aI2
aI1
aI2
aI1
aI5
aI1
aI1
aI9
aI1
aI41
aI4
aI3
aI4
aI7
aI1
aI9
aI26
aI6
aI1
aI2
aI1
aI7
aI1
aI1
aI11
aI4
aI1
aI1
aI1
aI1
aI1
aI6
aI1
aI2
aI1
aI1
aI1
aI27
aI2
aI1
aI1
aI7
aI14
aI1
aI1
aI1
aI1
aI2
aI2
aI7
aI1
aI25
aI1
aI1
aI13
aI1
aI2
aI1
aI2
aI4
aI1
aI1
aI2
aI2
aI3
aI1
aI9
aI1
aI1
aI2
aI1
aI2
aI2
aI4
aI1
aI1
aI1
aI2
aI1
aI1
aI1
aI46
aI2
aI1
aI2
aI1
aI1
aI1
aI1
aI3
aI1
aI1
aI13
aI3
aI1
aI7
aI591
aI5
aI9
aI13
aI6
aI1
aI1
aI1
aI2
aI1
aI1
aI1
aI2
aI31
aI19
aI6
aI4
aI2
aI2
aI50
aI2
aI1
aI1
aI11
aI1
aI1
aI2
aI2
aI3
aI1
aI1
aI1
aI3
aI29
aI1
aI1
aI1
aI5
aI2
aI6
aI4
aI1
aI1
aI1
aI1
aI9
aI2
aI6
aI1
aI2
aI2
aI120
aI1
aI13
aI14
aI5
aI4
aI1
aI1
aI800
aI2
aI78
aI2
aI30
aI1
aI1
aI2
aI5
aI2
aI1
aI8
aI5
aI11
aI2
aI1
aI1
aI11
aI1
aI10
aI1
aI4
aI55
aI1
aI2
aI2
aI1
aI1
aI5
aI12
aI25
aI1
aI1
aI2
aI5
aI1
aI3
aI1
aI1
aI1
aI1
aI3
aI13
aI1
aI4
aI13
aI3
aI1
aI1
aI1
aI4
aI4
aI6
aI1
aI15
aI2
aI1
aI6
aI2
aI49
aI2
aI7
aI12
aI1
aI2
aI11
aI2
aI10
aI5
aI1
aI1
aI1
aI2
aI2
aI8
aI1
aI1
aI6
aI58
aI2
aI14
aI1
aI1
aI1
aI1
aI492
aI4
aI1
aI1
aI1
aI1
aI1
aI1
aI1
aI1
aI1
aI1
aI1
aI1
aI1
aI1
aI1
aI1
aI1
aI1
aI79
aI6
aI2
aI1
aI2
aI1
aI1
aI1
aI33
aI1
aI1
aI4
aI386
aI1
aI3
aI3
aI17
aI8
aI1
aI4
aI2
aI5
aI1
aI1
aI1
aI2
aI1
aI1
aI1
aI1189
aI101
aI92
aI1
aI5
aI6
aI2
aI4
aI11
aI3
aI1
aI7
aI1
aI1
aI3
aI1
aI1
aI1
aI659
aI1
aI18
aI1
aI375
aI29
aI1
aI1
aI7
aI1
aI2
aI2
aI44
aI1
aI1
aI37
aI1
aI16
aI16
aI4
aI1
aI15
aI2
aI4
aI2
aI2
aI24
aI3
aI1
aI704
aI2
aI1
aI64
aI2
aI1
aI3
aI22
aI31
aI1
aI1
aI3
aI8
aI1
aI1
aI1
aI8
aI1
aI2
aI1
aI1
aI2
aI1
aI1
aI1
aI1
aI1
aI1
aI8
aI1
aI2
aI1
aI1
aI1
aI2
aI1
aI2
aI3
aI1
aI1
aI6
aI29
aI1
aI1
aI1
aI2
aI1
aI19
aI1
aI1
aI374
aI1
aI26
aI1
aI3
aI2
aI33
aI1
aI14
aI94
aI1
aI1
aI1
aI12
aI1
aI1
aI2
aI1
aI1
aI2
aI8
aI1
aI158
aI1
aI443
aI10
aI1
aI21
aI4
aI1
aI24
aI1
aI1
aI3
aI15
aI1
aI1
aI1
aI1
aI1
aI1
aI2
aI83
aI10
aI5
aI15
aI1
aI3
aI1
aI26
aI1
aI2
aI2
aI3
aI3
aI4
aI1
aI3
aI1
aI2
aI1348
aI8
aI1
aI46
aI2
aI2
aI9
aI1
aI5
aI1
aI19
aI1
aI9
aI1
aI100
aI1
aI1
aI1
aI18
aI1
aI2
aI1
aI50
aI1
aI1
aI1
aI1
aI1
aI4
aI1
aI1
aI1
aI8
aI1
aI1
aI8
aI1
aI22
aI1
aI1
aI3
aI24
aI2
aI3
aI8
aI1
aI3
aI1
aI11
aI1
aI7
aI1
aI2
aI2
aI1
aI2
aI1
aI1
aI14
aI10
aI1
aI1
aI2
aI1
aI3
aI6
aI2
aI1
aI36
aI1
aI3
aI3
aI53
aI6
aI1
aI1
aI16
aI3
aI3
aI5
aI1
aI44
aI1
aI5
aI1
aI2
aI2
aI1
aI6
aI1
aI2
aI80
aI3
aI1
aI13
aI2
aI6
aI1
aI7
aI1
aI1
aI1
aI2022
aI1
aI6
aI29
aI12
aI13
aI1
aI1
aI3
aI4
aI1
aI3
aI1
aI1
aI2
aI94
aI1
aI4
aI117
aI1
aI1
aI20
aI2
aI1
aI1
aI1
aI24
aI2
aI4
aI3
aI1
aI1
aI1
aI1
aI2
aI1
aI1
aI7
aI1
aI1
aI43
aI3
aI1
aI5
aI1
aI12
aI10
aI1
aI2
aI10
aI4
aI1
aI1
aI68
aI7
aI1
aI18
aI10
aI2
aI1
aI1
aI10
aI1
aI2
aI30
aI1
aI6
aI2
aI9
aI2
aI1
aI36
aI2
aI1
aI1
aI3
aI6
aI2
aI1
aI2
aI1
aI6
aI9
aI15
aI4
aI22
aI6
aI5
aI6
aI39
aI1
aI1
aI2
aI3
aI2
aI1
aI3
aI1
aI5
aI2
aI1
aI8
aI1
aI2
aI1
aI4
aI107
aI2
aI23
aI91
aI1
aI13
aI6
aI58
aI4
aI1
aI4
aI6
aI1
aI1
aI1
aI1
aI10
aI158
aI10
aI13
aI1
aI1
aI17
aI1
aI3
aI3
aI11
aI1
aI2
aI1
aI9
aI1
aI1
aI2
aI1
aI8
aI1
aI40
aI1
aI6
aI10
aI11
aI2
aI2
aI4
aI1
aI1
aI4
aI28
aI1
aI3
aI1
aI1
aI49
aI1
aI1
aI1
aI5
aI1
aI5
aI1
aI1
aI2
aI3
aI1
aI3
aI1
aI57
aI1
aI3
aI1
aI618
aI1
aI2
aI1
aI41
aI20
aI2
aI9
aI1
aI1
aI11
aI8
aI1
aI5
aI1
aI1
aI3
aI3
aI1
aI8
aI2
aI2
aI1
aI1
aI1
aI2
aI1
aI3
aI1
aI2
aI1
aI1
aI5
aI3
aI6
aI1
aI6
aI1
aI15
aI2
aI1
aI1
aI21
aI1
aI3
aI3
aI6
aI1
aI1
aI1
aI1
aI6
aI1
aI33
aI2
aI44
aI1
aI1
aI3
aI6
aI4
aI1
aI13
aI55
aI12
aI1
aI11
aI7
aI2
aI2
aI1
aI1
aI1
aI14
aI1
aI3
aI12
aI1
aI1
aI1
aI2
aI1
aI1
aI2
aI1
aI1
aI1
aI1
aI3
aI1
aI1
aI46
aI2
aI1
aI54
aI1
aI1
aI21
aI1
aI6
aI1
aI1
aI38
aI1
aI5
aI1
aI1
aI8
aI1
aI1
aI2
aI1
aI1
aI1
aI50
aI1
aI2
aI6
aI2
aI1
aI4
aI1
aI2
aI478
aI1
aI9
aI1
aI1
aI1
aI1
aI24
aI1
aI3
aI1
aI3
aI5
aI1
aI7
aI1
aI1
aI6
aI11
aI1
aI20
aI2
aI1
aI1
aI3601
aI30
aI5
aI1
aI3
aI29
aI6
aI2
aI216
aI1
aI123
aI1
aI5
aI10
aI8
aI1
aI1666
aI51
aI8
aI82
aI1
aI9
aI13
aI4
aI78
aI1
aI2
aI6
aI8
aI2
aI1
aI1
aI1
aI1
aI1
aI1
aI1
aI1
aI1
a.